; ModuleID = '/home/student/sbm99/hldda_project/code/gatesrec_hw3/test.cpp'
target datalayout = "e-m:e-p:32:32-i64:64-v128:64:128-n32-S64"
target triple = "armv7-xilinx-linux-gnueabi"

%"class.std::ios_base::Init" = type { i8 }
%struct._IO_FILE = type { i32, i8*, i8*, i8*, i8*, i8*, i8*, i8*, i8*, i8*, i8*, i8*, %struct._IO_marker*, %struct._IO_FILE*, i32, i32, i32, i16, i8, [1 x i8], i8*, i64, i8*, i8*, i8*, i8*, i32, i32, [40 x i8] }
%struct._IO_marker = type { %struct._IO_marker*, %struct._IO_FILE*, i32 }
%"class.std::basic_ostream" = type { i32 (...)**, %"class.std::basic_ios" }
%"class.std::basic_ios" = type { %"class.std::ios_base", %"class.std::basic_ostream"*, i8, i8, %"class.std::basic_streambuf"*, %"class.std::ctype"*, %"class.std::num_put"*, %"class.std::num_get"* }
%"class.std::ios_base" = type { i32 (...)**, i32, i32, i32, i32, i32, %"struct.std::ios_base::_Callback_list"*, %"struct.std::ios_base::_Words", [8 x %"struct.std::ios_base::_Words"], i32, %"struct.std::ios_base::_Words"*, %"class.std::locale" }
%"struct.std::ios_base::_Callback_list" = type { %"struct.std::ios_base::_Callback_list"*, void (i32, %"class.std::ios_base"*, i32)*, i32, i32 }
%"struct.std::ios_base::_Words" = type { i8*, i32 }
%"class.std::locale" = type { %"class.std::locale::_Impl"* }
%"class.std::locale::_Impl" = type { i32, %"class.std::locale::facet"**, i32, %"class.std::locale::facet"**, i8** }
%"class.std::locale::facet" = type { i32 (...)**, i32 }
%"class.std::basic_streambuf" = type { i32 (...)**, i8*, i8*, i8*, i8*, i8*, i8*, %"class.std::locale" }
%"class.std::ctype" = type { %"class.std::locale::facet", %struct.__locale_struct*, i8, i32*, i32*, i16*, i8, [256 x i8], [256 x i8], i8 }
%struct.__locale_struct = type { [13 x %struct.__locale_data*], i16*, i32*, i32*, [13 x i8*] }
%struct.__locale_data = type opaque
%"class.std::num_put" = type { %"class.std::locale::facet" }
%"class.std::num_get" = type { %"class.std::locale::facet" }
%"class.std::basic_fstream" = type { %"class.std::basic_iostream.base", %"class.std::basic_filebuf", %"class.std::basic_ios" }
%"class.std::basic_iostream.base" = type { %"class.std::basic_istream.base", %"class.std::basic_ostream.base" }
%"class.std::basic_istream.base" = type { i32 (...)**, i32 }
%"class.std::basic_ostream.base" = type { i32 (...)** }
%"class.std::basic_filebuf" = type { %"class.std::basic_streambuf", %union.pthread_mutex_t, %"class.std::__basic_file", i32, %struct.__mbstate_t, %struct.__mbstate_t, %struct.__mbstate_t, i8*, i32, i8, i8, i8, i8, i8*, i8*, i8, %"class.std::codecvt"*, i8*, i32, i8*, i8* }
%union.pthread_mutex_t = type { %"struct.(anonymous union)::__pthread_mutex_s" }
%"struct.(anonymous union)::__pthread_mutex_s" = type { i32, i32, i32, i32, i32, %union.anon }
%union.anon = type { i32 }
%"class.std::__basic_file" = type { %struct._IO_FILE*, i8 }
%struct.__mbstate_t = type { i32, %union.anon.0 }
%union.anon.0 = type { i32 }
%"class.std::codecvt" = type { %"class.std::__codecvt_abstract_base", %struct.__locale_struct* }
%"class.std::__codecvt_abstract_base" = type { %"class.std::locale::facet" }
%"class.std::basic_istream" = type { i32 (...)**, i32, %"class.std::basic_ios" }
%"class.std::vector" = type { %"struct.std::_Vector_base" }
%"struct.std::_Vector_base" = type { %"struct.std::_Vector_base<Images, std::allocator<Images> >::_Vector_impl" }
%"struct.std::_Vector_base<Images, std::allocator<Images> >::_Vector_impl" = type { %class.Images*, %class.Images*, %class.Images* }
%class.Images = type { i32, i32, i32, float* }
%"class.__gnu_cxx::__normal_iterator" = type { %class.Images* }
%"class.std::allocator" = type { i8 }
%"class.__gnu_cxx::new_allocator" = type { i8 }

@_ZStL8__ioinit = internal global %"class.std::ios_base::Init" zeroinitializer, align 1
@__dso_handle = external global i8
@.str = private unnamed_addr constant [34 x i8] c"data/mnist/t10k-images-idx3-ubyte\00", align 1
@stderr = external global %struct._IO_FILE*
@.str1 = private unnamed_addr constant [24 x i8] c"could not open file %s\0A\00", align 1
@.str2 = private unnamed_addr constant [40 x i8] c"mnist data magic number does not match\0A\00", align 1
@.str3 = private unnamed_addr constant [34 x i8] c"data/mnist/t10k-labels-idx1-ubyte\00", align 1
@_ZSt4cout = external global %"class.std::basic_ostream"
@.str4 = private unnamed_addr constant [7 x i8] c"First \00", align 1
@.str5 = private unnamed_addr constant [13 x i8] c" tests, hit \00", align 1
@.str6 = private unnamed_addr constant [12 x i8] c", accuracy \00", align 1
@.str7 = private unnamed_addr constant [2 x i8] c"%\00", align 1
@.str8 = private unnamed_addr constant [16 x i8] c"\0A\0ATest Finish\0A\0A\00", align 1
@.str9 = private unnamed_addr constant [12 x i8] c"Accuracy = \00", align 1
@.str10 = private unnamed_addr constant [22 x i8] c"vector::_M_insert_aux\00", align 1
@llvm.global_ctors = appending global [1 x { i32, void ()*, i8* }] [{ i32, void ()*, i8* } { i32 65535, void ()* @_GLOBAL__sub_I_test.cpp, i8* null }]

define internal void @__cxx_global_var_init() section ".text.startup" {
  %1 = call %"class.std::ios_base::Init"* @_ZNSt8ios_base4InitC1Ev(%"class.std::ios_base::Init"* @_ZStL8__ioinit), !dbg !866
  %2 = call i32 @__cxa_atexit(void (i8*)* bitcast (%"class.std::ios_base::Init"* (%"class.std::ios_base::Init"*)* @_ZNSt8ios_base4InitD1Ev to void (i8*)*), i8* getelementptr inbounds (%"class.std::ios_base::Init"* @_ZStL8__ioinit, i32 0, i32 0), i8* @__dso_handle) #1, !dbg !866
  ret void, !dbg !866
}

declare %"class.std::ios_base::Init"* @_ZNSt8ios_base4InitC1Ev(%"class.std::ios_base::Init"* returned) #0

declare %"class.std::ios_base::Init"* @_ZNSt8ios_base4InitD1Ev(%"class.std::ios_base::Init"* returned) #0

; Function Attrs: nounwind
declare i32 @__cxa_atexit(void (i8*)*, i8*, i8*) #1

define i8* @_Z22read_mnist_test_imagesRiS_S_(i32* dereferenceable(4) %count, i32* dereferenceable(4) %rows, i32* dereferenceable(4) %cols) #0 {
  %1 = alloca i32*, align 4
  %2 = alloca i32*, align 4
  %3 = alloca i32*, align 4
  %fs = alloca %"class.std::basic_fstream", align 4
  %4 = alloca i8*
  %5 = alloca i32
  %magicn = alloca i32, align 4
  %data = alloca i8*, align 4
  %6 = alloca i32
  store i32* %count, i32** %1, align 4
  call void @llvm.dbg.declare(metadata !{i32** %1}, metadata !867), !dbg !868
  store i32* %rows, i32** %2, align 4
  call void @llvm.dbg.declare(metadata !{i32** %2}, metadata !869), !dbg !870
  store i32* %cols, i32** %3, align 4
  call void @llvm.dbg.declare(metadata !{i32** %3}, metadata !871), !dbg !872
  call void @llvm.dbg.declare(metadata !{%"class.std::basic_fstream"* %fs}, metadata !873), !dbg !876
  %7 = call %"class.std::basic_fstream"* @_ZNSt13basic_fstreamIcSt11char_traitsIcEEC1Ev(%"class.std::basic_fstream"* %fs), !dbg !877
  invoke void @_ZNSt13basic_fstreamIcSt11char_traitsIcEE4openEPKcSt13_Ios_Openmode(%"class.std::basic_fstream"* %fs, i8* getelementptr inbounds ([34 x i8]* @.str, i32 0, i32 0), i32 8)
          to label %8 unwind label %15, !dbg !878

; <label>:8                                       ; preds = %0
  %9 = invoke zeroext i1 @_ZNSt13basic_fstreamIcSt11char_traitsIcEE7is_openEv(%"class.std::basic_fstream"* %fs)
          to label %10 unwind label %15, !dbg !879

; <label>:10                                      ; preds = %8
  br i1 %9, label %20, label %11, !dbg !881

; <label>:11                                      ; preds = %10
  %12 = load %struct._IO_FILE** @stderr, align 4, !dbg !883
  %13 = invoke i32 (%struct._IO_FILE*, i8*, ...)* @fprintf(%struct._IO_FILE* %12, i8* getelementptr inbounds ([24 x i8]* @.str1, i32 0, i32 0), i8* getelementptr inbounds ([34 x i8]* @.str, i32 0, i32 0))
          to label %14 unwind label %15, !dbg !883

; <label>:14                                      ; preds = %11
  call void @exit(i32 1) #10, !dbg !885
  unreachable, !dbg !885

; <label>:15                                      ; preds = %83, %71, %55, %46, %37, %32, %28, %20, %11, %8, %0
  %16 = landingpad { i8*, i32 } personality i8* bitcast (i32 (...)* @__gxx_personality_v0 to i8*)
          cleanup, !dbg !886
  %17 = extractvalue { i8*, i32 } %16, 0, !dbg !886
  store i8* %17, i8** %4, !dbg !886
  %18 = extractvalue { i8*, i32 } %16, 1, !dbg !886
  store i32 %18, i32* %5, !dbg !886
  %19 = invoke %"class.std::basic_fstream"* @_ZNSt13basic_fstreamIcSt11char_traitsIcEED1Ev(%"class.std::basic_fstream"* %fs)
          to label %87 unwind label %93, !dbg !886

; <label>:20                                      ; preds = %10
  call void @llvm.dbg.declare(metadata !{i32* %magicn}, metadata !887), !dbg !888
  %21 = bitcast %"class.std::basic_fstream"* %fs to %"class.std::basic_istream"*, !dbg !889
  %22 = bitcast i32* %magicn to i8*, !dbg !889
  %23 = invoke dereferenceable(144) %"class.std::basic_istream"* @_ZNSi4readEPci(%"class.std::basic_istream"* %21, i8* %22, i32 4)
          to label %24 unwind label %15, !dbg !889

; <label>:24                                      ; preds = %20
  %25 = load i32* %magicn, align 4, !dbg !890
  %26 = call i32 @llvm.bswap.i32(i32 %25), !dbg !890
  %27 = icmp ne i32 %26, 2051, !dbg !890
  br i1 %27, label %28, label %32, !dbg !890

; <label>:28                                      ; preds = %24
  %29 = load %struct._IO_FILE** @stderr, align 4, !dbg !892
  %30 = invoke i32 (%struct._IO_FILE*, i8*, ...)* @fprintf(%struct._IO_FILE* %29, i8* getelementptr inbounds ([40 x i8]* @.str2, i32 0, i32 0))
          to label %31 unwind label %15, !dbg !892

; <label>:31                                      ; preds = %28
  call void @exit(i32 1) #10, !dbg !894
  unreachable, !dbg !894

; <label>:32                                      ; preds = %24
  %33 = bitcast %"class.std::basic_fstream"* %fs to %"class.std::basic_istream"*, !dbg !895
  %34 = load i32** %1, align 4, !dbg !895
  %35 = bitcast i32* %34 to i8*, !dbg !895
  %36 = invoke dereferenceable(144) %"class.std::basic_istream"* @_ZNSi4readEPci(%"class.std::basic_istream"* %33, i8* %35, i32 4)
          to label %37 unwind label %15, !dbg !895

; <label>:37                                      ; preds = %32
  %38 = load i32** %1, align 4, !dbg !896
  %39 = load i32* %38, align 4, !dbg !896
  %40 = call i32 @llvm.bswap.i32(i32 %39), !dbg !896
  %41 = load i32** %1, align 4, !dbg !896
  store i32 %40, i32* %41, align 4, !dbg !896
  %42 = bitcast %"class.std::basic_fstream"* %fs to %"class.std::basic_istream"*, !dbg !897
  %43 = load i32** %2, align 4, !dbg !897
  %44 = bitcast i32* %43 to i8*, !dbg !897
  %45 = invoke dereferenceable(144) %"class.std::basic_istream"* @_ZNSi4readEPci(%"class.std::basic_istream"* %42, i8* %44, i32 4)
          to label %46 unwind label %15, !dbg !897

; <label>:46                                      ; preds = %37
  %47 = load i32** %2, align 4, !dbg !898
  %48 = load i32* %47, align 4, !dbg !898
  %49 = call i32 @llvm.bswap.i32(i32 %48), !dbg !898
  %50 = load i32** %2, align 4, !dbg !898
  store i32 %49, i32* %50, align 4, !dbg !898
  %51 = bitcast %"class.std::basic_fstream"* %fs to %"class.std::basic_istream"*, !dbg !899
  %52 = load i32** %3, align 4, !dbg !899
  %53 = bitcast i32* %52 to i8*, !dbg !899
  %54 = invoke dereferenceable(144) %"class.std::basic_istream"* @_ZNSi4readEPci(%"class.std::basic_istream"* %51, i8* %53, i32 4)
          to label %55 unwind label %15, !dbg !899

; <label>:55                                      ; preds = %46
  %56 = load i32** %3, align 4, !dbg !900
  %57 = load i32* %56, align 4, !dbg !900
  %58 = call i32 @llvm.bswap.i32(i32 %57), !dbg !900
  %59 = load i32** %3, align 4, !dbg !900
  store i32 %58, i32* %59, align 4, !dbg !900
  call void @llvm.dbg.declare(metadata !{i8** %data}, metadata !901), !dbg !902
  %60 = load i32** %1, align 4, !dbg !903
  %61 = load i32* %60, align 4, !dbg !903
  %62 = load i32** %2, align 4, !dbg !903
  %63 = load i32* %62, align 4, !dbg !903
  %64 = mul nsw i32 %61, %63, !dbg !903
  %65 = load i32** %3, align 4, !dbg !903
  %66 = load i32* %65, align 4, !dbg !903
  %67 = mul nsw i32 %64, %66, !dbg !903
  %68 = icmp slt i32 %67, 0, !dbg !903
  %69 = select i1 %68, i32 -1, i32 %67, !dbg !903
  %70 = invoke noalias i8* @_Znaj(i32 %69) #12
          to label %71 unwind label %15, !dbg !903

; <label>:71                                      ; preds = %55
  store i8* %70, i8** %data, align 4, !dbg !904
  %72 = bitcast %"class.std::basic_fstream"* %fs to %"class.std::basic_istream"*, !dbg !906
  %73 = load i8** %data, align 4, !dbg !906
  %74 = load i32** %1, align 4, !dbg !906
  %75 = load i32* %74, align 4, !dbg !906
  %76 = load i32** %2, align 4, !dbg !906
  %77 = load i32* %76, align 4, !dbg !906
  %78 = mul nsw i32 %75, %77, !dbg !906
  %79 = load i32** %3, align 4, !dbg !906
  %80 = load i32* %79, align 4, !dbg !906
  %81 = mul nsw i32 %78, %80, !dbg !906
  %82 = invoke dereferenceable(144) %"class.std::basic_istream"* @_ZNSi4readEPci(%"class.std::basic_istream"* %72, i8* %73, i32 %81)
          to label %83 unwind label %15, !dbg !906

; <label>:83                                      ; preds = %71
  invoke void @_ZNSt13basic_fstreamIcSt11char_traitsIcEE5closeEv(%"class.std::basic_fstream"* %fs)
          to label %84 unwind label %15, !dbg !907

; <label>:84                                      ; preds = %83
  %85 = load i8** %data, align 4, !dbg !908
  store i32 1, i32* %6
  %86 = call %"class.std::basic_fstream"* @_ZNSt13basic_fstreamIcSt11char_traitsIcEED1Ev(%"class.std::basic_fstream"* %fs), !dbg !886
  ret i8* %85, !dbg !886

; <label>:87                                      ; preds = %15
  br label %88, !dbg !909

; <label>:88                                      ; preds = %87
  %89 = load i8** %4, !dbg !911
  %90 = load i32* %5, !dbg !911
  %91 = insertvalue { i8*, i32 } undef, i8* %89, 0, !dbg !911
  %92 = insertvalue { i8*, i32 } %91, i32 %90, 1, !dbg !911
  resume { i8*, i32 } %92, !dbg !911

; <label>:93                                      ; preds = %15
  %94 = landingpad { i8*, i32 } personality i8* bitcast (i32 (...)* @__gxx_personality_v0 to i8*)
          catch i8* null, !dbg !913
  %95 = extractvalue { i8*, i32 } %94, 0, !dbg !913
  call void @__clang_call_terminate(i8* %95) #10, !dbg !913
  unreachable, !dbg !913
}

; Function Attrs: nounwind readnone
declare void @llvm.dbg.declare(metadata, metadata) #2

declare %"class.std::basic_fstream"* @_ZNSt13basic_fstreamIcSt11char_traitsIcEEC1Ev(%"class.std::basic_fstream"* returned) #0

declare void @_ZNSt13basic_fstreamIcSt11char_traitsIcEE4openEPKcSt13_Ios_Openmode(%"class.std::basic_fstream"*, i8*, i32) #0

declare i32 @__gxx_personality_v0(...)

declare zeroext i1 @_ZNSt13basic_fstreamIcSt11char_traitsIcEE7is_openEv(%"class.std::basic_fstream"*) #0

declare i32 @fprintf(%struct._IO_FILE*, i8*, ...) #0

; Function Attrs: noreturn nounwind
declare void @exit(i32) #3

declare dereferenceable(144) %"class.std::basic_istream"* @_ZNSi4readEPci(%"class.std::basic_istream"*, i8*, i32) #0

; Function Attrs: nounwind readnone
declare i32 @llvm.bswap.i32(i32) #2

; Function Attrs: nobuiltin
declare noalias i8* @_Znaj(i32) #4

declare void @_ZNSt13basic_fstreamIcSt11char_traitsIcEE5closeEv(%"class.std::basic_fstream"*) #0

declare %"class.std::basic_fstream"* @_ZNSt13basic_fstreamIcSt11char_traitsIcEED1Ev(%"class.std::basic_fstream"* returned) #0

; Function Attrs: noinline noreturn nounwind
define linkonce_odr hidden void @__clang_call_terminate(i8*) #5 {
  %2 = call i8* @__cxa_begin_catch(i8* %0) #1
  call void @_ZSt9terminatev() #10
  unreachable
}

declare i8* @__cxa_begin_catch(i8*)

declare void @_ZSt9terminatev()

define i8* @_Z22read_mnist_test_labelsRi(i32* dereferenceable(4) %count) #0 {
  %1 = alloca i32*, align 4
  %fs = alloca %"class.std::basic_fstream", align 4
  %2 = alloca i8*
  %3 = alloca i32
  %magicn = alloca i32, align 4
  %data = alloca i8*, align 4
  %4 = alloca i32
  store i32* %count, i32** %1, align 4
  call void @llvm.dbg.declare(metadata !{i32** %1}, metadata !915), !dbg !916
  call void @llvm.dbg.declare(metadata !{%"class.std::basic_fstream"* %fs}, metadata !917), !dbg !918
  %5 = call %"class.std::basic_fstream"* @_ZNSt13basic_fstreamIcSt11char_traitsIcEEC1Ev(%"class.std::basic_fstream"* %fs), !dbg !919
  invoke void @_ZNSt13basic_fstreamIcSt11char_traitsIcEE4openEPKcSt13_Ios_Openmode(%"class.std::basic_fstream"* %fs, i8* getelementptr inbounds ([34 x i8]* @.str3, i32 0, i32 0), i32 8)
          to label %6 unwind label %13, !dbg !920

; <label>:6                                       ; preds = %0
  %7 = invoke zeroext i1 @_ZNSt13basic_fstreamIcSt11char_traitsIcEE7is_openEv(%"class.std::basic_fstream"* %fs)
          to label %8 unwind label %13, !dbg !921

; <label>:8                                       ; preds = %6
  br i1 %7, label %18, label %9, !dbg !923

; <label>:9                                       ; preds = %8
  %10 = load %struct._IO_FILE** @stderr, align 4, !dbg !925
  %11 = invoke i32 (%struct._IO_FILE*, i8*, ...)* @fprintf(%struct._IO_FILE* %10, i8* getelementptr inbounds ([24 x i8]* @.str1, i32 0, i32 0), i8* getelementptr inbounds ([34 x i8]* @.str3, i32 0, i32 0))
          to label %12 unwind label %13, !dbg !925

; <label>:12                                      ; preds = %9
  call void @exit(i32 1) #10, !dbg !927
  unreachable, !dbg !927

; <label>:13                                      ; preds = %51, %45, %35, %30, %26, %18, %9, %6, %0
  %14 = landingpad { i8*, i32 } personality i8* bitcast (i32 (...)* @__gxx_personality_v0 to i8*)
          cleanup, !dbg !928
  %15 = extractvalue { i8*, i32 } %14, 0, !dbg !928
  store i8* %15, i8** %2, !dbg !928
  %16 = extractvalue { i8*, i32 } %14, 1, !dbg !928
  store i32 %16, i32* %3, !dbg !928
  %17 = invoke %"class.std::basic_fstream"* @_ZNSt13basic_fstreamIcSt11char_traitsIcEED1Ev(%"class.std::basic_fstream"* %fs)
          to label %55 unwind label %61, !dbg !928

; <label>:18                                      ; preds = %8
  call void @llvm.dbg.declare(metadata !{i32* %magicn}, metadata !929), !dbg !930
  %19 = bitcast %"class.std::basic_fstream"* %fs to %"class.std::basic_istream"*, !dbg !931
  %20 = bitcast i32* %magicn to i8*, !dbg !931
  %21 = invoke dereferenceable(144) %"class.std::basic_istream"* @_ZNSi4readEPci(%"class.std::basic_istream"* %19, i8* %20, i32 4)
          to label %22 unwind label %13, !dbg !931

; <label>:22                                      ; preds = %18
  %23 = load i32* %magicn, align 4, !dbg !932
  %24 = call i32 @llvm.bswap.i32(i32 %23), !dbg !932
  %25 = icmp ne i32 %24, 2049, !dbg !932
  br i1 %25, label %26, label %30, !dbg !932

; <label>:26                                      ; preds = %22
  %27 = load %struct._IO_FILE** @stderr, align 4, !dbg !934
  %28 = invoke i32 (%struct._IO_FILE*, i8*, ...)* @fprintf(%struct._IO_FILE* %27, i8* getelementptr inbounds ([40 x i8]* @.str2, i32 0, i32 0))
          to label %29 unwind label %13, !dbg !934

; <label>:29                                      ; preds = %26
  call void @exit(i32 1) #10, !dbg !936
  unreachable, !dbg !936

; <label>:30                                      ; preds = %22
  %31 = bitcast %"class.std::basic_fstream"* %fs to %"class.std::basic_istream"*, !dbg !937
  %32 = load i32** %1, align 4, !dbg !937
  %33 = bitcast i32* %32 to i8*, !dbg !937
  %34 = invoke dereferenceable(144) %"class.std::basic_istream"* @_ZNSi4readEPci(%"class.std::basic_istream"* %31, i8* %33, i32 4)
          to label %35 unwind label %13, !dbg !937

; <label>:35                                      ; preds = %30
  %36 = load i32** %1, align 4, !dbg !938
  %37 = load i32* %36, align 4, !dbg !938
  %38 = call i32 @llvm.bswap.i32(i32 %37), !dbg !938
  %39 = load i32** %1, align 4, !dbg !938
  store i32 %38, i32* %39, align 4, !dbg !938
  call void @llvm.dbg.declare(metadata !{i8** %data}, metadata !939), !dbg !940
  %40 = load i32** %1, align 4, !dbg !941
  %41 = load i32* %40, align 4, !dbg !941
  %42 = icmp slt i32 %41, 0, !dbg !941
  %43 = select i1 %42, i32 -1, i32 %41, !dbg !941
  %44 = invoke noalias i8* @_Znaj(i32 %43) #12
          to label %45 unwind label %13, !dbg !941

; <label>:45                                      ; preds = %35
  store i8* %44, i8** %data, align 4, !dbg !942
  %46 = bitcast %"class.std::basic_fstream"* %fs to %"class.std::basic_istream"*, !dbg !944
  %47 = load i8** %data, align 4, !dbg !944
  %48 = load i32** %1, align 4, !dbg !944
  %49 = load i32* %48, align 4, !dbg !944
  %50 = invoke dereferenceable(144) %"class.std::basic_istream"* @_ZNSi4readEPci(%"class.std::basic_istream"* %46, i8* %47, i32 %49)
          to label %51 unwind label %13, !dbg !944

; <label>:51                                      ; preds = %45
  invoke void @_ZNSt13basic_fstreamIcSt11char_traitsIcEE5closeEv(%"class.std::basic_fstream"* %fs)
          to label %52 unwind label %13, !dbg !945

; <label>:52                                      ; preds = %51
  %53 = load i8** %data, align 4, !dbg !946
  store i32 1, i32* %4
  %54 = call %"class.std::basic_fstream"* @_ZNSt13basic_fstreamIcSt11char_traitsIcEED1Ev(%"class.std::basic_fstream"* %fs), !dbg !928
  ret i8* %53, !dbg !928

; <label>:55                                      ; preds = %13
  br label %56, !dbg !947

; <label>:56                                      ; preds = %55
  %57 = load i8** %2, !dbg !949
  %58 = load i32* %3, !dbg !949
  %59 = insertvalue { i8*, i32 } undef, i8* %57, 0, !dbg !949
  %60 = insertvalue { i8*, i32 } %59, i32 %58, 1, !dbg !949
  resume { i8*, i32 } %60, !dbg !949

; <label>:61                                      ; preds = %13
  %62 = landingpad { i8*, i32 } personality i8* bitcast (i32 (...)* @__gxx_personality_v0 to i8*)
          catch i8* null, !dbg !951
  %63 = extractvalue { i8*, i32 } %62, 0, !dbg !951
  call void @__clang_call_terminate(i8* %63) #10, !dbg !951
  unreachable, !dbg !951
}

define i32 @main(i32 %argc, i8** %argv) #0 {
  %1 = alloca i32, align 4
  %2 = alloca i32, align 4
  %3 = alloca i8**, align 4
  %count = alloca i32, align 4
  %labels_raw = alloca i8*, align 4
  %in_labels = alloca i32*, align 4
  %i = alloca i32, align 4
  %in_rows = alloca i32, align 4
  %in_cols = alloca i32, align 4
  %in_number = alloca i32, align 4
  %in_raw = alloca i8*, align 4
  %in_data = alloca float*, align 4
  %i1 = alloca i32, align 4
  %in_imgs = alloca %"class.std::vector", align 4
  %i2 = alloca i32, align 4
  %im = alloca %class.Images, align 4
  %4 = alloca i8*
  %5 = alloca i32
  %correct = alloca i32, align 4
  %num_test_inst = alloca i32, align 4
  %i3 = alloca i32, align 4
  %6 = alloca %class.Images, align 4
  %rate = alloca float, align 4
  %7 = alloca i32
  store i32 0, i32* %1
  store i32 %argc, i32* %2, align 4
  call void @llvm.dbg.declare(metadata !{i32* %2}, metadata !953), !dbg !954
  store i8** %argv, i8*** %3, align 4
  call void @llvm.dbg.declare(metadata !{i8*** %3}, metadata !955), !dbg !956
  call void @llvm.dbg.declare(metadata !{i32* %count}, metadata !957), !dbg !958
  store i32 0, i32* %count, align 4, !dbg !959
  call void @llvm.dbg.declare(metadata !{i8** %labels_raw}, metadata !960), !dbg !961
  %8 = call i8* @_Z22read_mnist_test_labelsRi(i32* dereferenceable(4) %count), !dbg !962
  store i8* %8, i8** %labels_raw, align 4, !dbg !962
  call void @llvm.dbg.declare(metadata !{i32** %in_labels}, metadata !963), !dbg !965
  %9 = load i32* %count, align 4, !dbg !966
  %10 = call { i32, i1 } @llvm.umul.with.overflow.i32(i32 %9, i32 4), !dbg !966
  %11 = extractvalue { i32, i1 } %10, 1, !dbg !966
  %12 = extractvalue { i32, i1 } %10, 0, !dbg !966
  %13 = select i1 %11, i32 -1, i32 %12, !dbg !966
  %14 = call noalias i8* @_Znaj(i32 %13) #12, !dbg !966
  %15 = bitcast i8* %14 to i32*, !dbg !966
  store i32* %15, i32** %in_labels, align 4, !dbg !966
  call void @llvm.dbg.declare(metadata !{i32* %i}, metadata !967), !dbg !969
  store i32 0, i32* %i, align 4, !dbg !970
  br label %16, !dbg !970

; <label>:16                                      ; preds = %29, %0
  %17 = load i32* %i, align 4, !dbg !971
  %18 = load i32* %count, align 4, !dbg !971
  %19 = icmp slt i32 %17, %18, !dbg !971
  br i1 %19, label %20, label %32, !dbg !971

; <label>:20                                      ; preds = %16
  %21 = load i32* %i, align 4, !dbg !974
  %22 = load i8** %labels_raw, align 4, !dbg !974
  %23 = getelementptr inbounds i8* %22, i32 %21, !dbg !974
  %24 = load i8* %23, align 1, !dbg !974
  %25 = zext i8 %24 to i32, !dbg !974
  %26 = load i32* %i, align 4, !dbg !974
  %27 = load i32** %in_labels, align 4, !dbg !974
  %28 = getelementptr inbounds i32* %27, i32 %26, !dbg !974
  store i32 %25, i32* %28, align 4, !dbg !974
  br label %29, !dbg !976

; <label>:29                                      ; preds = %20
  %30 = load i32* %i, align 4, !dbg !977
  %31 = add nsw i32 %30, 1, !dbg !977
  store i32 %31, i32* %i, align 4, !dbg !977
  br label %16, !dbg !977

; <label>:32                                      ; preds = %16
  call void @llvm.dbg.declare(metadata !{i32* %in_rows}, metadata !978), !dbg !979
  call void @llvm.dbg.declare(metadata !{i32* %in_cols}, metadata !980), !dbg !981
  call void @llvm.dbg.declare(metadata !{i32* %in_number}, metadata !982), !dbg !983
  call void @llvm.dbg.declare(metadata !{i8** %in_raw}, metadata !984), !dbg !985
  %33 = call i8* @_Z22read_mnist_test_imagesRiS_S_(i32* dereferenceable(4) %in_number, i32* dereferenceable(4) %in_rows, i32* dereferenceable(4) %in_cols), !dbg !986
  store i8* %33, i8** %in_raw, align 4, !dbg !986
  call void @llvm.dbg.declare(metadata !{float** %in_data}, metadata !987), !dbg !988
  %34 = load i32* %in_number, align 4, !dbg !989
  %35 = load i32* %in_rows, align 4, !dbg !989
  %36 = mul nsw i32 %34, %35, !dbg !989
  %37 = load i32* %in_cols, align 4, !dbg !989
  %38 = mul nsw i32 %36, %37, !dbg !989
  %39 = call { i32, i1 } @llvm.umul.with.overflow.i32(i32 %38, i32 4), !dbg !989
  %40 = extractvalue { i32, i1 } %39, 1, !dbg !989
  %41 = extractvalue { i32, i1 } %39, 0, !dbg !989
  %42 = select i1 %40, i32 -1, i32 %41, !dbg !989
  %43 = call noalias i8* @_Znaj(i32 %42) #12, !dbg !989
  %44 = bitcast i8* %43 to float*, !dbg !989
  store float* %44, float** %in_data, align 4, !dbg !989
  call void @llvm.dbg.declare(metadata !{i32* %i1}, metadata !990), !dbg !992
  store i32 0, i32* %i1, align 4, !dbg !993
  br label %45, !dbg !993

; <label>:45                                      ; preds = %62, %32
  %46 = load i32* %i1, align 4, !dbg !994
  %47 = load i32* %in_number, align 4, !dbg !994
  %48 = load i32* %in_rows, align 4, !dbg !994
  %49 = mul nsw i32 %47, %48, !dbg !994
  %50 = load i32* %in_cols, align 4, !dbg !994
  %51 = mul nsw i32 %49, %50, !dbg !994
  %52 = icmp slt i32 %46, %51, !dbg !994
  br i1 %52, label %53, label %65, !dbg !994

; <label>:53                                      ; preds = %45
  %54 = load i32* %i1, align 4, !dbg !997
  %55 = load i8** %in_raw, align 4, !dbg !997
  %56 = getelementptr inbounds i8* %55, i32 %54, !dbg !997
  %57 = load i8* %56, align 1, !dbg !997
  %58 = uitofp i8 %57 to float, !dbg !997
  %59 = load i32* %i1, align 4, !dbg !997
  %60 = load float** %in_data, align 4, !dbg !997
  %61 = getelementptr inbounds float* %60, i32 %59, !dbg !997
  store float %58, float* %61, align 4, !dbg !997
  br label %62, !dbg !999

; <label>:62                                      ; preds = %53
  %63 = load i32* %i1, align 4, !dbg !1000
  %64 = add nsw i32 %63, 1, !dbg !1000
  store i32 %64, i32* %i1, align 4, !dbg !1000
  br label %45, !dbg !1000

; <label>:65                                      ; preds = %45
  call void @llvm.dbg.declare(metadata !{%"class.std::vector"* %in_imgs}, metadata !1001), !dbg !1002
  %66 = call %"class.std::vector"* @_ZNSt6vectorI6ImagesSaIS0_EEC2Ev(%"class.std::vector"* %in_imgs), !dbg !1003
  call void @llvm.dbg.declare(metadata !{i32* %i2}, metadata !1004), !dbg !1006
  store i32 0, i32* %i2, align 4, !dbg !1007
  br label %67, !dbg !1007

; <label>:67                                      ; preds = %84, %65
  %68 = load i32* %i2, align 4, !dbg !1008
  %69 = load i32* %in_number, align 4, !dbg !1008
  %70 = icmp slt i32 %68, %69, !dbg !1008
  br i1 %70, label %71, label %92, !dbg !1008

; <label>:71                                      ; preds = %67
  call void @llvm.dbg.declare(metadata !{%class.Images* %im}, metadata !1011), !dbg !1013
  %72 = load i32* %in_rows, align 4, !dbg !1013
  %73 = load i32* %in_cols, align 4, !dbg !1013
  %74 = load float** %in_data, align 4, !dbg !1013
  %75 = load i32* %i2, align 4, !dbg !1013
  %76 = load i32* %in_rows, align 4, !dbg !1013
  %77 = mul nsw i32 %75, %76, !dbg !1013
  %78 = load i32* %in_cols, align 4, !dbg !1013
  %79 = mul nsw i32 %77, %78, !dbg !1013
  %80 = getelementptr inbounds float* %74, i32 %79, !dbg !1013
  %81 = invoke %class.Images* @_ZN6ImagesC2EiiiPf(%class.Images* %im, i32 1, i32 %72, i32 %73, float* %80)
          to label %82 unwind label %87, !dbg !1013

; <label>:82                                      ; preds = %71
  invoke void @_ZNSt6vectorI6ImagesSaIS0_EE9push_backERKS0_(%"class.std::vector"* %in_imgs, %class.Images* dereferenceable(16) %im)
          to label %83 unwind label %87, !dbg !1014

; <label>:83                                      ; preds = %82
  br label %84, !dbg !1015

; <label>:84                                      ; preds = %83
  %85 = load i32* %i2, align 4, !dbg !1016
  %86 = add nsw i32 %85, 1, !dbg !1016
  store i32 %86, i32* %i2, align 4, !dbg !1016
  br label %67, !dbg !1016

; <label>:87                                      ; preds = %169, %167, %164, %162, %160, %152, %145, %143, %134, %132, %129, %127, %123, %121, %104, %97, %82, %71
  %88 = landingpad { i8*, i32 } personality i8* bitcast (i32 (...)* @__gxx_personality_v0 to i8*)
          cleanup, !dbg !1017
  %89 = extractvalue { i8*, i32 } %88, 0, !dbg !1017
  store i8* %89, i8** %4, !dbg !1017
  %90 = extractvalue { i8*, i32 } %88, 1, !dbg !1017
  store i32 %90, i32* %5, !dbg !1017
  %91 = invoke %"class.std::vector"* @_ZNSt6vectorI6ImagesSaIS0_EED2Ev(%"class.std::vector"* %in_imgs)
          to label %174 unwind label %180, !dbg !1018

; <label>:92                                      ; preds = %67
  call void @llvm.dbg.declare(metadata !{i32* %correct}, metadata !1019), !dbg !1020
  store i32 0, i32* %correct, align 4, !dbg !1021
  call void @llvm.dbg.declare(metadata !{i32* %num_test_inst}, metadata !1022), !dbg !1023
  store i32 2, i32* %num_test_inst, align 4, !dbg !1024
  call void @llvm.dbg.declare(metadata !{i32* %i3}, metadata !1025), !dbg !1027
  store i32 0, i32* %i3, align 4, !dbg !1028
  br label %93, !dbg !1028

; <label>:93                                      ; preds = %149, %92
  %94 = load i32* %i3, align 4, !dbg !1029
  %95 = load i32* %num_test_inst, align 4, !dbg !1029
  %96 = icmp slt i32 %94, %95, !dbg !1029
  br i1 %96, label %97, label %152, !dbg !1029

; <label>:97                                      ; preds = %93
  %98 = load i32* %i3, align 4, !dbg !1032
  %99 = load i32** %in_labels, align 4, !dbg !1032
  %100 = getelementptr inbounds i32* %99, i32 %98, !dbg !1032
  %101 = load i32* %100, align 4, !dbg !1032
  %102 = load i32* %i3, align 4, !dbg !1035
  %103 = invoke dereferenceable(16) %class.Images* @_ZNSt6vectorI6ImagesSaIS0_EEixEj(%"class.std::vector"* %in_imgs, i32 %102)
          to label %104 unwind label %87, !dbg !1035

; <label>:104                                     ; preds = %97
  %105 = bitcast %class.Images* %6 to i8*, !dbg !1036
  %106 = bitcast %class.Images* %103 to i8*, !dbg !1036
  call void @llvm.memcpy.p0i8.p0i8.i32(i8* %105, i8* %106, i32 16, i32 4, i1 false), !dbg !1036
  %107 = bitcast %class.Images* %6 to { [4 x i32] }*, !dbg !1038
  %108 = getelementptr { [4 x i32] }* %107, i32 0, i32 0, !dbg !1038
  %109 = load [4 x i32]* %108, align 1, !dbg !1038
  %110 = invoke i32 @_Z3cnn6Images([4 x i32] %109)
          to label %111 unwind label %87, !dbg !1038

; <label>:111                                     ; preds = %104
  %112 = icmp eq i32 %101, %110, !dbg !1039
  br i1 %112, label %113, label %116, !dbg !1039

; <label>:113                                     ; preds = %111
  %114 = load i32* %correct, align 4, !dbg !1041
  %115 = add nsw i32 %114, 1, !dbg !1041
  store i32 %115, i32* %correct, align 4, !dbg !1041
  br label %116, !dbg !1043

; <label>:116                                     ; preds = %113, %111
  %117 = load i32* %i3, align 4, !dbg !1044
  %118 = add nsw i32 %117, 1, !dbg !1044
  %119 = srem i32 %118, 100, !dbg !1044
  %120 = icmp eq i32 %119, 0, !dbg !1044
  br i1 %120, label %121, label %148, !dbg !1044

; <label>:121                                     ; preds = %116
  %122 = invoke dereferenceable(140) %"class.std::basic_ostream"* @_ZStlsISt11char_traitsIcEERSt13basic_ostreamIcT_ES5_PKc(%"class.std::basic_ostream"* dereferenceable(140) @_ZSt4cout, i8* getelementptr inbounds ([7 x i8]* @.str4, i32 0, i32 0))
          to label %123 unwind label %87, !dbg !1046

; <label>:123                                     ; preds = %121
  %124 = load i32* %i3, align 4, !dbg !1048
  %125 = add nsw i32 %124, 1, !dbg !1048
  %126 = invoke dereferenceable(140) %"class.std::basic_ostream"* @_ZNSolsEi(%"class.std::basic_ostream"* %122, i32 %125)
          to label %127 unwind label %87, !dbg !1048

; <label>:127                                     ; preds = %123
  %128 = invoke dereferenceable(140) %"class.std::basic_ostream"* @_ZStlsISt11char_traitsIcEERSt13basic_ostreamIcT_ES5_PKc(%"class.std::basic_ostream"* dereferenceable(140) %126, i8* getelementptr inbounds ([13 x i8]* @.str5, i32 0, i32 0))
          to label %129 unwind label %87, !dbg !1050

; <label>:129                                     ; preds = %127
  %130 = load i32* %correct, align 4, !dbg !1052
  %131 = invoke dereferenceable(140) %"class.std::basic_ostream"* @_ZNSolsEi(%"class.std::basic_ostream"* %128, i32 %130)
          to label %132 unwind label %87, !dbg !1052

; <label>:132                                     ; preds = %129
  %133 = invoke dereferenceable(140) %"class.std::basic_ostream"* @_ZStlsISt11char_traitsIcEERSt13basic_ostreamIcT_ES5_PKc(%"class.std::basic_ostream"* dereferenceable(140) @_ZSt4cout, i8* getelementptr inbounds ([12 x i8]* @.str6, i32 0, i32 0))
          to label %134 unwind label %87, !dbg !1054

; <label>:134                                     ; preds = %132
  %135 = load i32* %correct, align 4, !dbg !1055
  %136 = sitofp i32 %135 to float, !dbg !1055
  %137 = fmul float 1.000000e+02, %136, !dbg !1055
  %138 = load i32* %i3, align 4, !dbg !1055
  %139 = add nsw i32 %138, 1, !dbg !1055
  %140 = sitofp i32 %139 to float, !dbg !1055
  %141 = fdiv float %137, %140, !dbg !1055
  %142 = invoke dereferenceable(140) %"class.std::basic_ostream"* @_ZNSolsEf(%"class.std::basic_ostream"* %133, float %141)
          to label %143 unwind label %87, !dbg !1055

; <label>:143                                     ; preds = %134
  %144 = invoke dereferenceable(140) %"class.std::basic_ostream"* @_ZStlsISt11char_traitsIcEERSt13basic_ostreamIcT_ES5_PKc(%"class.std::basic_ostream"* dereferenceable(140) %142, i8* getelementptr inbounds ([2 x i8]* @.str7, i32 0, i32 0))
          to label %145 unwind label %87, !dbg !1057

; <label>:145                                     ; preds = %143
  %146 = invoke dereferenceable(140) %"class.std::basic_ostream"* @_ZNSolsEPFRSoS_E(%"class.std::basic_ostream"* %144, %"class.std::basic_ostream"* (%"class.std::basic_ostream"*)* @_ZSt4endlIcSt11char_traitsIcEERSt13basic_ostreamIT_T0_ES6_)
          to label %147 unwind label %87, !dbg !1059

; <label>:147                                     ; preds = %145
  br label %148, !dbg !1061

; <label>:148                                     ; preds = %147, %116
  br label %149, !dbg !1062

; <label>:149                                     ; preds = %148
  %150 = load i32* %i3, align 4, !dbg !1063
  %151 = add nsw i32 %150, 1, !dbg !1063
  store i32 %151, i32* %i3, align 4, !dbg !1063
  br label %93, !dbg !1063

; <label>:152                                     ; preds = %93
  call void @llvm.dbg.declare(metadata !{float* %rate}, metadata !1064), !dbg !1065
  %153 = load i32* %correct, align 4, !dbg !1066
  %154 = sitofp i32 %153 to float, !dbg !1066
  %155 = fmul float 1.000000e+02, %154, !dbg !1066
  %156 = load i32* %num_test_inst, align 4, !dbg !1066
  %157 = sitofp i32 %156 to float, !dbg !1066
  %158 = fdiv float %155, %157, !dbg !1066
  store float %158, float* %rate, align 4, !dbg !1066
  %159 = invoke dereferenceable(140) %"class.std::basic_ostream"* @_ZStlsISt11char_traitsIcEERSt13basic_ostreamIcT_ES5_PKc(%"class.std::basic_ostream"* dereferenceable(140) @_ZSt4cout, i8* getelementptr inbounds ([16 x i8]* @.str8, i32 0, i32 0))
          to label %160 unwind label %87, !dbg !1067

; <label>:160                                     ; preds = %152
  %161 = invoke dereferenceable(140) %"class.std::basic_ostream"* @_ZNSolsEPFRSoS_E(%"class.std::basic_ostream"* %159, %"class.std::basic_ostream"* (%"class.std::basic_ostream"*)* @_ZSt4endlIcSt11char_traitsIcEERSt13basic_ostreamIT_T0_ES6_)
          to label %162 unwind label %87, !dbg !1068

; <label>:162                                     ; preds = %160
  %163 = invoke dereferenceable(140) %"class.std::basic_ostream"* @_ZStlsISt11char_traitsIcEERSt13basic_ostreamIcT_ES5_PKc(%"class.std::basic_ostream"* dereferenceable(140) @_ZSt4cout, i8* getelementptr inbounds ([12 x i8]* @.str9, i32 0, i32 0))
          to label %164 unwind label %87, !dbg !1070

; <label>:164                                     ; preds = %162
  %165 = load float* %rate, align 4, !dbg !1071
  %166 = invoke dereferenceable(140) %"class.std::basic_ostream"* @_ZNSolsEf(%"class.std::basic_ostream"* %163, float %165)
          to label %167 unwind label %87, !dbg !1071

; <label>:167                                     ; preds = %164
  %168 = invoke dereferenceable(140) %"class.std::basic_ostream"* @_ZStlsISt11char_traitsIcEERSt13basic_ostreamIcT_ES5_PKc(%"class.std::basic_ostream"* dereferenceable(140) %166, i8* getelementptr inbounds ([2 x i8]* @.str7, i32 0, i32 0))
          to label %169 unwind label %87, !dbg !1073

; <label>:169                                     ; preds = %167
  %170 = invoke dereferenceable(140) %"class.std::basic_ostream"* @_ZNSolsEPFRSoS_E(%"class.std::basic_ostream"* %168, %"class.std::basic_ostream"* (%"class.std::basic_ostream"*)* @_ZSt4endlIcSt11char_traitsIcEERSt13basic_ostreamIT_T0_ES6_)
          to label %171 unwind label %87, !dbg !1075

; <label>:171                                     ; preds = %169
  store i32 0, i32* %1, !dbg !1077
  store i32 1, i32* %7
  %172 = call %"class.std::vector"* @_ZNSt6vectorI6ImagesSaIS0_EED2Ev(%"class.std::vector"* %in_imgs), !dbg !1077
  %173 = load i32* %1, !dbg !1018
  ret i32 %173, !dbg !1018

; <label>:174                                     ; preds = %87
  br label %175, !dbg !1078

; <label>:175                                     ; preds = %174
  %176 = load i8** %4, !dbg !1080
  %177 = load i32* %5, !dbg !1080
  %178 = insertvalue { i8*, i32 } undef, i8* %176, 0, !dbg !1080
  %179 = insertvalue { i8*, i32 } %178, i32 %177, 1, !dbg !1080
  resume { i8*, i32 } %179, !dbg !1080

; <label>:180                                     ; preds = %87
  %181 = landingpad { i8*, i32 } personality i8* bitcast (i32 (...)* @__gxx_personality_v0 to i8*)
          catch i8* null, !dbg !1082
  %182 = extractvalue { i8*, i32 } %181, 0, !dbg !1082
  call void @__clang_call_terminate(i8* %182) #10, !dbg !1082
  unreachable, !dbg !1082
}

; Function Attrs: nounwind readnone
declare { i32, i1 } @llvm.umul.with.overflow.i32(i32, i32) #2

define linkonce_odr %"class.std::vector"* @_ZNSt6vectorI6ImagesSaIS0_EEC2Ev(%"class.std::vector"* returned %this) unnamed_addr #0 align 2 {
  %1 = alloca %"class.std::vector"*, align 4
  store %"class.std::vector"* %this, %"class.std::vector"** %1, align 4
  call void @llvm.dbg.declare(metadata !{%"class.std::vector"** %1}, metadata !1084), !dbg !1086
  %2 = load %"class.std::vector"** %1
  %3 = bitcast %"class.std::vector"* %2 to %"struct.std::_Vector_base"*, !dbg !1087
  %4 = call %"struct.std::_Vector_base"* @_ZNSt12_Vector_baseI6ImagesSaIS0_EEC2Ev(%"struct.std::_Vector_base"* %3), !dbg !1087
  ret %"class.std::vector"* %2, !dbg !1088
}

define linkonce_odr %class.Images* @_ZN6ImagesC2EiiiPf(%class.Images* returned %this, i32 %frames, i32 %rows, i32 %cols, float* %data) unnamed_addr #0 align 2 {
  %1 = alloca %class.Images*, align 4
  %2 = alloca %class.Images*, align 4
  %3 = alloca i32, align 4
  %4 = alloca i32, align 4
  %5 = alloca i32, align 4
  %6 = alloca float*, align 4
  %i = alloca i32, align 4
  store %class.Images* %this, %class.Images** %2, align 4
  call void @llvm.dbg.declare(metadata !{%class.Images** %2}, metadata !1089), !dbg !1090
  store i32 %frames, i32* %3, align 4
  call void @llvm.dbg.declare(metadata !{i32* %3}, metadata !1091), !dbg !1093
  store i32 %rows, i32* %4, align 4
  call void @llvm.dbg.declare(metadata !{i32* %4}, metadata !1094), !dbg !1095
  store i32 %cols, i32* %5, align 4
  call void @llvm.dbg.declare(metadata !{i32* %5}, metadata !1096), !dbg !1097
  store float* %data, float** %6, align 4
  call void @llvm.dbg.declare(metadata !{float** %6}, metadata !1098), !dbg !1099
  %7 = load %class.Images** %2
  store %class.Images* %7, %class.Images** %1
  %8 = load i32* %3, align 4, !dbg !1100
  %9 = getelementptr inbounds %class.Images* %7, i32 0, i32 0, !dbg !1100
  store i32 %8, i32* %9, align 4, !dbg !1100
  %10 = load i32* %4, align 4, !dbg !1102
  %11 = getelementptr inbounds %class.Images* %7, i32 0, i32 1, !dbg !1102
  store i32 %10, i32* %11, align 4, !dbg !1102
  %12 = load i32* %5, align 4, !dbg !1103
  %13 = getelementptr inbounds %class.Images* %7, i32 0, i32 2, !dbg !1103
  store i32 %12, i32* %13, align 4, !dbg !1103
  %14 = load i32* %3, align 4, !dbg !1104
  %15 = load i32* %4, align 4, !dbg !1104
  %16 = mul nsw i32 %14, %15, !dbg !1104
  %17 = load i32* %5, align 4, !dbg !1104
  %18 = mul nsw i32 %16, %17, !dbg !1104
  %19 = call { i32, i1 } @llvm.umul.with.overflow.i32(i32 %18, i32 4), !dbg !1104
  %20 = extractvalue { i32, i1 } %19, 1, !dbg !1104
  %21 = extractvalue { i32, i1 } %19, 0, !dbg !1104
  %22 = select i1 %20, i32 -1, i32 %21, !dbg !1104
  %23 = call noalias i8* @_Znaj(i32 %22) #12, !dbg !1104
  %24 = bitcast i8* %23 to float*, !dbg !1104
  %25 = getelementptr inbounds %class.Images* %7, i32 0, i32 3, !dbg !1104
  store float* %24, float** %25, align 4, !dbg !1104
  call void @llvm.dbg.declare(metadata !{i32* %i}, metadata !1105), !dbg !1107
  store i32 0, i32* %i, align 4, !dbg !1108
  br label %26, !dbg !1108

; <label>:26                                      ; preds = %43, %0
  %27 = load i32* %i, align 4, !dbg !1109
  %28 = load i32* %3, align 4, !dbg !1109
  %29 = load i32* %4, align 4, !dbg !1109
  %30 = mul nsw i32 %28, %29, !dbg !1109
  %31 = load i32* %5, align 4, !dbg !1109
  %32 = mul nsw i32 %30, %31, !dbg !1109
  %33 = icmp slt i32 %27, %32, !dbg !1109
  br i1 %33, label %34, label %46, !dbg !1109

; <label>:34                                      ; preds = %26
  %35 = load i32* %i, align 4, !dbg !1112
  %36 = load float** %6, align 4, !dbg !1112
  %37 = getelementptr inbounds float* %36, i32 %35, !dbg !1112
  %38 = load float* %37, align 4, !dbg !1112
  %39 = load i32* %i, align 4, !dbg !1112
  %40 = getelementptr inbounds %class.Images* %7, i32 0, i32 3, !dbg !1112
  %41 = load float** %40, align 4, !dbg !1112
  %42 = getelementptr inbounds float* %41, i32 %39, !dbg !1112
  store float %38, float* %42, align 4, !dbg !1112
  br label %43, !dbg !1114

; <label>:43                                      ; preds = %34
  %44 = load i32* %i, align 4, !dbg !1115
  %45 = add nsw i32 %44, 1, !dbg !1115
  store i32 %45, i32* %i, align 4, !dbg !1115
  br label %26, !dbg !1115

; <label>:46                                      ; preds = %26
  %47 = load %class.Images** %1, !dbg !1116
  ret %class.Images* %47, !dbg !1116
}

define linkonce_odr void @_ZNSt6vectorI6ImagesSaIS0_EE9push_backERKS0_(%"class.std::vector"* %this, %class.Images* dereferenceable(16) %__x) #0 align 2 {
  %1 = alloca %"class.std::vector"*, align 4
  %2 = alloca %class.Images*, align 4
  %3 = alloca %"class.__gnu_cxx::__normal_iterator", align 4
  store %"class.std::vector"* %this, %"class.std::vector"** %1, align 4
  call void @llvm.dbg.declare(metadata !{%"class.std::vector"** %1}, metadata !1117), !dbg !1118
  store %class.Images* %__x, %class.Images** %2, align 4
  call void @llvm.dbg.declare(metadata !{%class.Images** %2}, metadata !1119), !dbg !1121
  %4 = load %"class.std::vector"** %1
  %5 = bitcast %"class.std::vector"* %4 to %"struct.std::_Vector_base"*, !dbg !1122
  %6 = getelementptr inbounds %"struct.std::_Vector_base"* %5, i32 0, i32 0, !dbg !1122
  %7 = getelementptr inbounds %"struct.std::_Vector_base<Images, std::allocator<Images> >::_Vector_impl"* %6, i32 0, i32 1, !dbg !1122
  %8 = load %class.Images** %7, align 4, !dbg !1122
  %9 = bitcast %"class.std::vector"* %4 to %"struct.std::_Vector_base"*, !dbg !1122
  %10 = getelementptr inbounds %"struct.std::_Vector_base"* %9, i32 0, i32 0, !dbg !1122
  %11 = getelementptr inbounds %"struct.std::_Vector_base<Images, std::allocator<Images> >::_Vector_impl"* %10, i32 0, i32 2, !dbg !1122
  %12 = load %class.Images** %11, align 4, !dbg !1122
  %13 = icmp ne %class.Images* %8, %12, !dbg !1122
  br i1 %13, label %14, label %28, !dbg !1122

; <label>:14                                      ; preds = %0
  %15 = bitcast %"class.std::vector"* %4 to %"struct.std::_Vector_base"*, !dbg !1124
  %16 = getelementptr inbounds %"struct.std::_Vector_base"* %15, i32 0, i32 0, !dbg !1124
  %17 = bitcast %"struct.std::_Vector_base<Images, std::allocator<Images> >::_Vector_impl"* %16 to %"class.std::allocator"*, !dbg !1124
  %18 = bitcast %"class.std::vector"* %4 to %"struct.std::_Vector_base"*, !dbg !1124
  %19 = getelementptr inbounds %"struct.std::_Vector_base"* %18, i32 0, i32 0, !dbg !1124
  %20 = getelementptr inbounds %"struct.std::_Vector_base<Images, std::allocator<Images> >::_Vector_impl"* %19, i32 0, i32 1, !dbg !1124
  %21 = load %class.Images** %20, align 4, !dbg !1124
  %22 = load %class.Images** %2, align 4, !dbg !1124
  call void @_ZN9__gnu_cxx14__alloc_traitsISaI6ImagesEE9constructIS1_EEvRS2_PS1_RKT_(%"class.std::allocator"* dereferenceable(1) %17, %class.Images* %21, %class.Images* dereferenceable(16) %22), !dbg !1124
  %23 = bitcast %"class.std::vector"* %4 to %"struct.std::_Vector_base"*, !dbg !1126
  %24 = getelementptr inbounds %"struct.std::_Vector_base"* %23, i32 0, i32 0, !dbg !1126
  %25 = getelementptr inbounds %"struct.std::_Vector_base<Images, std::allocator<Images> >::_Vector_impl"* %24, i32 0, i32 1, !dbg !1126
  %26 = load %class.Images** %25, align 4, !dbg !1126
  %27 = getelementptr inbounds %class.Images* %26, i32 1, !dbg !1126
  store %class.Images* %27, %class.Images** %25, align 4, !dbg !1126
  br label %36, !dbg !1127

; <label>:28                                      ; preds = %0
  %29 = call i32 @_ZNSt6vectorI6ImagesSaIS0_EE3endEv(%"class.std::vector"* %4), !dbg !1128
  %30 = getelementptr %"class.__gnu_cxx::__normal_iterator"* %3, i32 0, i32 0, !dbg !1128
  %31 = inttoptr i32 %29 to %class.Images*, !dbg !1128
  store %class.Images* %31, %class.Images** %30, !dbg !1128
  %32 = load %class.Images** %2, align 4, !dbg !1129
  %33 = bitcast %"class.__gnu_cxx::__normal_iterator"* %3 to { [1 x i32] }*, !dbg !1129
  %34 = getelementptr { [1 x i32] }* %33, i32 0, i32 0, !dbg !1129
  %35 = load [1 x i32]* %34, align 1, !dbg !1129
  call void @_ZNSt6vectorI6ImagesSaIS0_EE13_M_insert_auxEN9__gnu_cxx17__normal_iteratorIPS0_S2_EERKS0_(%"class.std::vector"* %4, [1 x i32] %35, %class.Images* dereferenceable(16) %32), !dbg !1129
  br label %36

; <label>:36                                      ; preds = %28, %14
  ret void, !dbg !1130
}

declare i32 @_Z3cnn6Images([4 x i32]) #0

; Function Attrs: nounwind
define linkonce_odr dereferenceable(16) %class.Images* @_ZNSt6vectorI6ImagesSaIS0_EEixEj(%"class.std::vector"* %this, i32 %__n) #6 align 2 {
  %1 = alloca %"class.std::vector"*, align 4
  %2 = alloca i32, align 4
  store %"class.std::vector"* %this, %"class.std::vector"** %1, align 4
  call void @llvm.dbg.declare(metadata !{%"class.std::vector"** %1}, metadata !1131), !dbg !1132
  store i32 %__n, i32* %2, align 4
  call void @llvm.dbg.declare(metadata !{i32* %2}, metadata !1133), !dbg !1134
  %3 = load %"class.std::vector"** %1
  %4 = bitcast %"class.std::vector"* %3 to %"struct.std::_Vector_base"*, !dbg !1135
  %5 = getelementptr inbounds %"struct.std::_Vector_base"* %4, i32 0, i32 0, !dbg !1135
  %6 = getelementptr inbounds %"struct.std::_Vector_base<Images, std::allocator<Images> >::_Vector_impl"* %5, i32 0, i32 0, !dbg !1135
  %7 = load %class.Images** %6, align 4, !dbg !1135
  %8 = load i32* %2, align 4, !dbg !1135
  %9 = getelementptr inbounds %class.Images* %7, i32 %8, !dbg !1135
  ret %class.Images* %9, !dbg !1135
}

; Function Attrs: nounwind
declare void @llvm.memcpy.p0i8.p0i8.i32(i8* nocapture, i8* nocapture readonly, i32, i32, i1) #1

declare dereferenceable(140) %"class.std::basic_ostream"* @_ZStlsISt11char_traitsIcEERSt13basic_ostreamIcT_ES5_PKc(%"class.std::basic_ostream"* dereferenceable(140), i8*) #0

declare dereferenceable(140) %"class.std::basic_ostream"* @_ZNSolsEi(%"class.std::basic_ostream"*, i32) #0

declare dereferenceable(140) %"class.std::basic_ostream"* @_ZNSolsEf(%"class.std::basic_ostream"*, float) #0

declare dereferenceable(140) %"class.std::basic_ostream"* @_ZNSolsEPFRSoS_E(%"class.std::basic_ostream"*, %"class.std::basic_ostream"* (%"class.std::basic_ostream"*)*) #0

declare dereferenceable(140) %"class.std::basic_ostream"* @_ZSt4endlIcSt11char_traitsIcEERSt13basic_ostreamIT_T0_ES6_(%"class.std::basic_ostream"* dereferenceable(140)) #0

define linkonce_odr %"class.std::vector"* @_ZNSt6vectorI6ImagesSaIS0_EED2Ev(%"class.std::vector"* returned %this) unnamed_addr #0 align 2 {
  %1 = alloca %"class.std::vector"*, align 4
  %2 = alloca i8*
  %3 = alloca i32
  store %"class.std::vector"* %this, %"class.std::vector"** %1, align 4
  call void @llvm.dbg.declare(metadata !{%"class.std::vector"** %1}, metadata !1136), !dbg !1137
  %4 = load %"class.std::vector"** %1
  %5 = bitcast %"class.std::vector"* %4 to %"struct.std::_Vector_base"*, !dbg !1138
  %6 = getelementptr inbounds %"struct.std::_Vector_base"* %5, i32 0, i32 0, !dbg !1138
  %7 = getelementptr inbounds %"struct.std::_Vector_base<Images, std::allocator<Images> >::_Vector_impl"* %6, i32 0, i32 0, !dbg !1138
  %8 = load %class.Images** %7, align 4, !dbg !1138
  %9 = bitcast %"class.std::vector"* %4 to %"struct.std::_Vector_base"*, !dbg !1138
  %10 = getelementptr inbounds %"struct.std::_Vector_base"* %9, i32 0, i32 0, !dbg !1138
  %11 = getelementptr inbounds %"struct.std::_Vector_base<Images, std::allocator<Images> >::_Vector_impl"* %10, i32 0, i32 1, !dbg !1138
  %12 = load %class.Images** %11, align 4, !dbg !1138
  %13 = bitcast %"class.std::vector"* %4 to %"struct.std::_Vector_base"*, !dbg !1140
  %14 = invoke dereferenceable(1) %"class.std::allocator"* @_ZNSt12_Vector_baseI6ImagesSaIS0_EE19_M_get_Tp_allocatorEv(%"struct.std::_Vector_base"* %13)
          to label %15 unwind label %19, !dbg !1140

; <label>:15                                      ; preds = %0
  invoke void @_ZSt8_DestroyIP6ImagesS0_EvT_S2_RSaIT0_E(%class.Images* %8, %class.Images* %12, %"class.std::allocator"* dereferenceable(1) %14)
          to label %16 unwind label %19, !dbg !1138

; <label>:16                                      ; preds = %15
  %17 = bitcast %"class.std::vector"* %4 to %"struct.std::_Vector_base"*, !dbg !1141
  %18 = call %"struct.std::_Vector_base"* @_ZNSt12_Vector_baseI6ImagesSaIS0_EED2Ev(%"struct.std::_Vector_base"* %17), !dbg !1141
  ret %"class.std::vector"* %4, !dbg !1142

; <label>:19                                      ; preds = %15, %0
  %20 = landingpad { i8*, i32 } personality i8* bitcast (i32 (...)* @__gxx_personality_v0 to i8*)
          cleanup, !dbg !1143
  %21 = extractvalue { i8*, i32 } %20, 0, !dbg !1143
  store i8* %21, i8** %2, !dbg !1143
  %22 = extractvalue { i8*, i32 } %20, 1, !dbg !1143
  store i32 %22, i32* %3, !dbg !1143
  %23 = bitcast %"class.std::vector"* %4 to %"struct.std::_Vector_base"*, !dbg !1142
  %24 = invoke %"struct.std::_Vector_base"* @_ZNSt12_Vector_baseI6ImagesSaIS0_EED2Ev(%"struct.std::_Vector_base"* %23)
          to label %25 unwind label %31, !dbg !1142

; <label>:25                                      ; preds = %19
  br label %26, !dbg !1145

; <label>:26                                      ; preds = %25
  %27 = load i8** %2, !dbg !1147
  %28 = load i32* %3, !dbg !1147
  %29 = insertvalue { i8*, i32 } undef, i8* %27, 0, !dbg !1147
  %30 = insertvalue { i8*, i32 } %29, i32 %28, 1, !dbg !1147
  resume { i8*, i32 } %30, !dbg !1147

; <label>:31                                      ; preds = %19
  %32 = landingpad { i8*, i32 } personality i8* bitcast (i32 (...)* @__gxx_personality_v0 to i8*)
          catch i8* null, !dbg !1149
  %33 = extractvalue { i8*, i32 } %32, 0, !dbg !1149
  call void @__clang_call_terminate(i8* %33) #10, !dbg !1149
  unreachable, !dbg !1149
}

define linkonce_odr void @_ZN9__gnu_cxx14__alloc_traitsISaI6ImagesEE9constructIS1_EEvRS2_PS1_RKT_(%"class.std::allocator"* dereferenceable(1) %__a, %class.Images* %__p, %class.Images* dereferenceable(16) %__arg) #0 align 2 {
  %1 = alloca %"class.std::allocator"*, align 4
  %2 = alloca %class.Images*, align 4
  %3 = alloca %class.Images*, align 4
  store %"class.std::allocator"* %__a, %"class.std::allocator"** %1, align 4
  call void @llvm.dbg.declare(metadata !{%"class.std::allocator"** %1}, metadata !1151), !dbg !1153
  store %class.Images* %__p, %class.Images** %2, align 4
  call void @llvm.dbg.declare(metadata !{%class.Images** %2}, metadata !1154), !dbg !1155
  store %class.Images* %__arg, %class.Images** %3, align 4
  call void @llvm.dbg.declare(metadata !{%class.Images** %3}, metadata !1156), !dbg !1157
  %4 = load %"class.std::allocator"** %1, align 4, !dbg !1158
  %5 = bitcast %"class.std::allocator"* %4 to %"class.__gnu_cxx::new_allocator"*, !dbg !1158
  %6 = load %class.Images** %2, align 4, !dbg !1158
  %7 = load %class.Images** %3, align 4, !dbg !1158
  call void @_ZN9__gnu_cxx13new_allocatorI6ImagesE9constructEPS1_RKS1_(%"class.__gnu_cxx::new_allocator"* %5, %class.Images* %6, %class.Images* dereferenceable(16) %7), !dbg !1158
  ret void, !dbg !1159
}

define linkonce_odr void @_ZNSt6vectorI6ImagesSaIS0_EE13_M_insert_auxEN9__gnu_cxx17__normal_iteratorIPS0_S2_EERKS0_(%"class.std::vector"* %this, [1 x i32] %__position.coerce, %class.Images* dereferenceable(16) %__x) #0 align 2 {
  %__position = alloca %"class.__gnu_cxx::__normal_iterator", align 4
  %1 = alloca %"class.std::vector"*, align 4
  %2 = alloca %class.Images*, align 4
  %__x_copy = alloca %class.Images, align 4
  %__len = alloca i32, align 4
  %__elems_before = alloca i32, align 4
  %3 = alloca %"class.__gnu_cxx::__normal_iterator", align 4
  %__new_start = alloca %class.Images*, align 4
  %__new_finish = alloca %class.Images*, align 4
  %4 = alloca i8*
  %5 = alloca i32
  %6 = getelementptr %"class.__gnu_cxx::__normal_iterator"* %__position, i32 0, i32 0
  %7 = bitcast %class.Images** %6 to [1 x i32]*
  store [1 x i32] %__position.coerce, [1 x i32]* %7, align 1
  store %"class.std::vector"* %this, %"class.std::vector"** %1, align 4
  call void @llvm.dbg.declare(metadata !{%"class.std::vector"** %1}, metadata !1160), !dbg !1161
  call void @llvm.dbg.declare(metadata !{%"class.__gnu_cxx::__normal_iterator"* %__position}, metadata !1162), !dbg !1163
  store %class.Images* %__x, %class.Images** %2, align 4
  call void @llvm.dbg.declare(metadata !{%class.Images** %2}, metadata !1164), !dbg !1165
  %8 = load %"class.std::vector"** %1
  %9 = bitcast %"class.std::vector"* %8 to %"struct.std::_Vector_base"*, !dbg !1166
  %10 = getelementptr inbounds %"struct.std::_Vector_base"* %9, i32 0, i32 0, !dbg !1166
  %11 = getelementptr inbounds %"struct.std::_Vector_base<Images, std::allocator<Images> >::_Vector_impl"* %10, i32 0, i32 1, !dbg !1166
  %12 = load %class.Images** %11, align 4, !dbg !1166
  %13 = bitcast %"class.std::vector"* %8 to %"struct.std::_Vector_base"*, !dbg !1166
  %14 = getelementptr inbounds %"struct.std::_Vector_base"* %13, i32 0, i32 0, !dbg !1166
  %15 = getelementptr inbounds %"struct.std::_Vector_base<Images, std::allocator<Images> >::_Vector_impl"* %14, i32 0, i32 2, !dbg !1166
  %16 = load %class.Images** %15, align 4, !dbg !1166
  %17 = icmp ne %class.Images* %12, %16, !dbg !1166
  br i1 %17, label %18, label %55, !dbg !1166

; <label>:18                                      ; preds = %0
  %19 = bitcast %"class.std::vector"* %8 to %"struct.std::_Vector_base"*, !dbg !1168
  %20 = getelementptr inbounds %"struct.std::_Vector_base"* %19, i32 0, i32 0, !dbg !1168
  %21 = bitcast %"struct.std::_Vector_base<Images, std::allocator<Images> >::_Vector_impl"* %20 to %"class.std::allocator"*, !dbg !1168
  %22 = bitcast %"class.std::vector"* %8 to %"struct.std::_Vector_base"*, !dbg !1168
  %23 = getelementptr inbounds %"struct.std::_Vector_base"* %22, i32 0, i32 0, !dbg !1168
  %24 = getelementptr inbounds %"struct.std::_Vector_base<Images, std::allocator<Images> >::_Vector_impl"* %23, i32 0, i32 1, !dbg !1168
  %25 = load %class.Images** %24, align 4, !dbg !1168
  %26 = bitcast %"class.std::vector"* %8 to %"struct.std::_Vector_base"*, !dbg !1168
  %27 = getelementptr inbounds %"struct.std::_Vector_base"* %26, i32 0, i32 0, !dbg !1168
  %28 = getelementptr inbounds %"struct.std::_Vector_base<Images, std::allocator<Images> >::_Vector_impl"* %27, i32 0, i32 1, !dbg !1168
  %29 = load %class.Images** %28, align 4, !dbg !1168
  %30 = getelementptr inbounds %class.Images* %29, i32 -1, !dbg !1168
  call void @_ZN9__gnu_cxx14__alloc_traitsISaI6ImagesEE9constructIS1_EEvRS2_PS1_RKT_(%"class.std::allocator"* dereferenceable(1) %21, %class.Images* %25, %class.Images* dereferenceable(16) %30), !dbg !1168
  %31 = bitcast %"class.std::vector"* %8 to %"struct.std::_Vector_base"*, !dbg !1170
  %32 = getelementptr inbounds %"struct.std::_Vector_base"* %31, i32 0, i32 0, !dbg !1170
  %33 = getelementptr inbounds %"struct.std::_Vector_base<Images, std::allocator<Images> >::_Vector_impl"* %32, i32 0, i32 1, !dbg !1170
  %34 = load %class.Images** %33, align 4, !dbg !1170
  %35 = getelementptr inbounds %class.Images* %34, i32 1, !dbg !1170
  store %class.Images* %35, %class.Images** %33, align 4, !dbg !1170
  call void @llvm.dbg.declare(metadata !{%class.Images* %__x_copy}, metadata !1171), !dbg !1173
  %36 = load %class.Images** %2, align 4, !dbg !1174
  %37 = bitcast %class.Images* %__x_copy to i8*, !dbg !1174
  %38 = bitcast %class.Images* %36 to i8*, !dbg !1174
  call void @llvm.memcpy.p0i8.p0i8.i32(i8* %37, i8* %38, i32 16, i32 4, i1 false), !dbg !1174
  %39 = call dereferenceable(4) %class.Images** @_ZNK9__gnu_cxx17__normal_iteratorIP6ImagesSt6vectorIS1_SaIS1_EEE4baseEv(%"class.__gnu_cxx::__normal_iterator"* %__position), !dbg !1175
  %40 = load %class.Images** %39, !dbg !1175
  %41 = bitcast %"class.std::vector"* %8 to %"struct.std::_Vector_base"*, !dbg !1175
  %42 = getelementptr inbounds %"struct.std::_Vector_base"* %41, i32 0, i32 0, !dbg !1175
  %43 = getelementptr inbounds %"struct.std::_Vector_base<Images, std::allocator<Images> >::_Vector_impl"* %42, i32 0, i32 1, !dbg !1175
  %44 = load %class.Images** %43, align 4, !dbg !1175
  %45 = getelementptr inbounds %class.Images* %44, i32 -2, !dbg !1175
  %46 = bitcast %"class.std::vector"* %8 to %"struct.std::_Vector_base"*, !dbg !1175
  %47 = getelementptr inbounds %"struct.std::_Vector_base"* %46, i32 0, i32 0, !dbg !1175
  %48 = getelementptr inbounds %"struct.std::_Vector_base<Images, std::allocator<Images> >::_Vector_impl"* %47, i32 0, i32 1, !dbg !1175
  %49 = load %class.Images** %48, align 4, !dbg !1175
  %50 = getelementptr inbounds %class.Images* %49, i32 -1, !dbg !1175
  %51 = call %class.Images* @_ZSt13copy_backwardIP6ImagesS1_ET0_T_S3_S2_(%class.Images* %40, %class.Images* %45, %class.Images* %50), !dbg !1175
  %52 = call dereferenceable(16) %class.Images* @_ZNK9__gnu_cxx17__normal_iteratorIP6ImagesSt6vectorIS1_SaIS1_EEEdeEv(%"class.__gnu_cxx::__normal_iterator"* %__position), !dbg !1176
  %53 = bitcast %class.Images* %52 to i8*, !dbg !1176
  %54 = bitcast %class.Images* %__x_copy to i8*, !dbg !1176
  call void @llvm.memcpy.p0i8.p0i8.i32(i8* %53, i8* %54, i32 16, i32 4, i1 false), !dbg !1176
  br label %177, !dbg !1177

; <label>:55                                      ; preds = %0
  call void @llvm.dbg.declare(metadata !{i32* %__len}, metadata !1178), !dbg !1181
  %56 = call i32 @_ZNKSt6vectorI6ImagesSaIS0_EE12_M_check_lenEjPKc(%"class.std::vector"* %8, i32 1, i8* getelementptr inbounds ([22 x i8]* @.str10, i32 0, i32 0)), !dbg !1182
  store i32 %56, i32* %__len, align 4, !dbg !1182
  call void @llvm.dbg.declare(metadata !{i32* %__elems_before}, metadata !1183), !dbg !1184
  %57 = call i32 @_ZNSt6vectorI6ImagesSaIS0_EE5beginEv(%"class.std::vector"* %8), !dbg !1185
  %58 = getelementptr %"class.__gnu_cxx::__normal_iterator"* %3, i32 0, i32 0, !dbg !1185
  %59 = inttoptr i32 %57 to %class.Images*, !dbg !1185
  store %class.Images* %59, %class.Images** %58, !dbg !1185
  %60 = call i32 @_ZN9__gnu_cxxmiIP6ImagesSt6vectorIS1_SaIS1_EEEENS_17__normal_iteratorIT_T0_E15difference_typeERKS9_SC_(%"class.__gnu_cxx::__normal_iterator"* dereferenceable(4) %__position, %"class.__gnu_cxx::__normal_iterator"* dereferenceable(4) %3), !dbg !1186
  store i32 %60, i32* %__elems_before, align 4, !dbg !1186
  call void @llvm.dbg.declare(metadata !{%class.Images** %__new_start}, metadata !1187), !dbg !1188
  %61 = bitcast %"class.std::vector"* %8 to %"struct.std::_Vector_base"*, !dbg !1189
  %62 = load i32* %__len, align 4, !dbg !1189
  %63 = call %class.Images* @_ZNSt12_Vector_baseI6ImagesSaIS0_EE11_M_allocateEj(%"struct.std::_Vector_base"* %61, i32 %62), !dbg !1189
  store %class.Images* %63, %class.Images** %__new_start, align 4, !dbg !1189
  call void @llvm.dbg.declare(metadata !{%class.Images** %__new_finish}, metadata !1190), !dbg !1191
  %64 = load %class.Images** %__new_start, align 4, !dbg !1192
  store %class.Images* %64, %class.Images** %__new_finish, align 4, !dbg !1192
  %65 = bitcast %"class.std::vector"* %8 to %"struct.std::_Vector_base"*, !dbg !1193
  %66 = getelementptr inbounds %"struct.std::_Vector_base"* %65, i32 0, i32 0, !dbg !1193
  %67 = bitcast %"struct.std::_Vector_base<Images, std::allocator<Images> >::_Vector_impl"* %66 to %"class.std::allocator"*, !dbg !1193
  %68 = load %class.Images** %__new_start, align 4, !dbg !1193
  %69 = load i32* %__elems_before, align 4, !dbg !1193
  %70 = getelementptr inbounds %class.Images* %68, i32 %69, !dbg !1193
  %71 = load %class.Images** %2, align 4, !dbg !1193
  invoke void @_ZN9__gnu_cxx14__alloc_traitsISaI6ImagesEE9constructIS1_EEvRS2_PS1_RKT_(%"class.std::allocator"* dereferenceable(1) %67, %class.Images* %70, %class.Images* dereferenceable(16) %71)
          to label %72 unwind label %101, !dbg !1193

; <label>:72                                      ; preds = %55
  store %class.Images* null, %class.Images** %__new_finish, align 4, !dbg !1195
  %73 = bitcast %"class.std::vector"* %8 to %"struct.std::_Vector_base"*, !dbg !1196
  %74 = getelementptr inbounds %"struct.std::_Vector_base"* %73, i32 0, i32 0, !dbg !1196
  %75 = getelementptr inbounds %"struct.std::_Vector_base<Images, std::allocator<Images> >::_Vector_impl"* %74, i32 0, i32 0, !dbg !1196
  %76 = load %class.Images** %75, align 4, !dbg !1196
  %77 = invoke dereferenceable(4) %class.Images** @_ZNK9__gnu_cxx17__normal_iteratorIP6ImagesSt6vectorIS1_SaIS1_EEE4baseEv(%"class.__gnu_cxx::__normal_iterator"* %__position)
          to label %78 unwind label %101, !dbg !1197

; <label>:78                                      ; preds = %72
  %79 = load %class.Images** %77, !dbg !1198
  %80 = load %class.Images** %__new_start, align 4, !dbg !1196
  %81 = bitcast %"class.std::vector"* %8 to %"struct.std::_Vector_base"*, !dbg !1200
  %82 = invoke dereferenceable(1) %"class.std::allocator"* @_ZNSt12_Vector_baseI6ImagesSaIS0_EE19_M_get_Tp_allocatorEv(%"struct.std::_Vector_base"* %81)
          to label %83 unwind label %101, !dbg !1200

; <label>:83                                      ; preds = %78
  %84 = invoke %class.Images* @_ZSt34__uninitialized_move_if_noexcept_aIP6ImagesS1_SaIS0_EET0_T_S4_S3_RT1_(%class.Images* %76, %class.Images* %79, %class.Images* %80, %"class.std::allocator"* dereferenceable(1) %82)
          to label %85 unwind label %101, !dbg !1196

; <label>:85                                      ; preds = %83
  store %class.Images* %84, %class.Images** %__new_finish, align 4, !dbg !1201
  %86 = load %class.Images** %__new_finish, align 4, !dbg !1203
  %87 = getelementptr inbounds %class.Images* %86, i32 1, !dbg !1203
  store %class.Images* %87, %class.Images** %__new_finish, align 4, !dbg !1203
  %88 = invoke dereferenceable(4) %class.Images** @_ZNK9__gnu_cxx17__normal_iteratorIP6ImagesSt6vectorIS1_SaIS1_EEE4baseEv(%"class.__gnu_cxx::__normal_iterator"* %__position)
          to label %89 unwind label %101, !dbg !1204

; <label>:89                                      ; preds = %85
  %90 = load %class.Images** %88, !dbg !1205
  %91 = bitcast %"class.std::vector"* %8 to %"struct.std::_Vector_base"*, !dbg !1207
  %92 = getelementptr inbounds %"struct.std::_Vector_base"* %91, i32 0, i32 0, !dbg !1207
  %93 = getelementptr inbounds %"struct.std::_Vector_base<Images, std::allocator<Images> >::_Vector_impl"* %92, i32 0, i32 1, !dbg !1207
  %94 = load %class.Images** %93, align 4, !dbg !1207
  %95 = load %class.Images** %__new_finish, align 4, !dbg !1207
  %96 = bitcast %"class.std::vector"* %8 to %"struct.std::_Vector_base"*, !dbg !1208
  %97 = invoke dereferenceable(1) %"class.std::allocator"* @_ZNSt12_Vector_baseI6ImagesSaIS0_EE19_M_get_Tp_allocatorEv(%"struct.std::_Vector_base"* %96)
          to label %98 unwind label %101, !dbg !1208

; <label>:98                                      ; preds = %89
  %99 = invoke %class.Images* @_ZSt34__uninitialized_move_if_noexcept_aIP6ImagesS1_SaIS0_EET0_T_S4_S3_RT1_(%class.Images* %90, %class.Images* %94, %class.Images* %95, %"class.std::allocator"* dereferenceable(1) %97)
          to label %100 unwind label %101, !dbg !1207

; <label>:100                                     ; preds = %98
  store %class.Images* %99, %class.Images** %__new_finish, align 4, !dbg !1209
  br label %135, !dbg !1211

; <label>:101                                     ; preds = %98, %89, %85, %83, %78, %72, %55
  %102 = landingpad { i8*, i32 } personality i8* bitcast (i32 (...)* @__gxx_personality_v0 to i8*)
          catch i8* null, !dbg !1212
  %103 = extractvalue { i8*, i32 } %102, 0, !dbg !1212
  store i8* %103, i8** %4, !dbg !1212
  %104 = extractvalue { i8*, i32 } %102, 1, !dbg !1212
  store i32 %104, i32* %5, !dbg !1212
  br label %105, !dbg !1212

; <label>:105                                     ; preds = %101
  %106 = load i8** %4, !dbg !1211
  %107 = call i8* @__cxa_begin_catch(i8* %106) #1, !dbg !1211
  %108 = load %class.Images** %__new_finish, align 4, !dbg !1213
  %109 = icmp ne %class.Images* %108, null, !dbg !1213
  br i1 %109, label %122, label %110, !dbg !1213

; <label>:110                                     ; preds = %105
  %111 = bitcast %"class.std::vector"* %8 to %"struct.std::_Vector_base"*, !dbg !1216
  %112 = getelementptr inbounds %"struct.std::_Vector_base"* %111, i32 0, i32 0, !dbg !1216
  %113 = bitcast %"struct.std::_Vector_base<Images, std::allocator<Images> >::_Vector_impl"* %112 to %"class.std::allocator"*, !dbg !1216
  %114 = load %class.Images** %__new_start, align 4, !dbg !1216
  %115 = load i32* %__elems_before, align 4, !dbg !1216
  %116 = getelementptr inbounds %class.Images* %114, i32 %115, !dbg !1216
  invoke void @_ZN9__gnu_cxx14__alloc_traitsISaI6ImagesEE7destroyERS2_PS1_(%"class.std::allocator"* dereferenceable(1) %113, %class.Images* %116)
          to label %117 unwind label %118, !dbg !1216

; <label>:117                                     ; preds = %110
  br label %129, !dbg !1217

; <label>:118                                     ; preds = %133, %129, %127, %122, %110
  %119 = landingpad { i8*, i32 } personality i8* bitcast (i32 (...)* @__gxx_personality_v0 to i8*)
          cleanup, !dbg !1219
  %120 = extractvalue { i8*, i32 } %119, 0, !dbg !1219
  store i8* %120, i8** %4, !dbg !1219
  %121 = extractvalue { i8*, i32 } %119, 1, !dbg !1219
  store i32 %121, i32* %5, !dbg !1219
  invoke void @__cxa_end_catch()
          to label %134 unwind label %183, !dbg !1220

; <label>:122                                     ; preds = %105
  %123 = load %class.Images** %__new_start, align 4, !dbg !1221
  %124 = load %class.Images** %__new_finish, align 4, !dbg !1221
  %125 = bitcast %"class.std::vector"* %8 to %"struct.std::_Vector_base"*, !dbg !1222
  %126 = invoke dereferenceable(1) %"class.std::allocator"* @_ZNSt12_Vector_baseI6ImagesSaIS0_EE19_M_get_Tp_allocatorEv(%"struct.std::_Vector_base"* %125)
          to label %127 unwind label %118, !dbg !1222

; <label>:127                                     ; preds = %122
  invoke void @_ZSt8_DestroyIP6ImagesS0_EvT_S2_RSaIT0_E(%class.Images* %123, %class.Images* %124, %"class.std::allocator"* dereferenceable(1) %126)
          to label %128 unwind label %118, !dbg !1223

; <label>:128                                     ; preds = %127
  br label %129

; <label>:129                                     ; preds = %128, %117
  %130 = bitcast %"class.std::vector"* %8 to %"struct.std::_Vector_base"*, !dbg !1225
  %131 = load %class.Images** %__new_start, align 4, !dbg !1225
  %132 = load i32* %__len, align 4, !dbg !1225
  invoke void @_ZNSt12_Vector_baseI6ImagesSaIS0_EE13_M_deallocateEPS0_j(%"struct.std::_Vector_base"* %130, %class.Images* %131, i32 %132)
          to label %133 unwind label %118, !dbg !1225

; <label>:133                                     ; preds = %129
  invoke void @__cxa_rethrow() #13
          to label %186 unwind label %118, !dbg !1226

; <label>:134                                     ; preds = %118
  br label %178, !dbg !1227

; <label>:135                                     ; preds = %100
  %136 = bitcast %"class.std::vector"* %8 to %"struct.std::_Vector_base"*, !dbg !1229
  %137 = getelementptr inbounds %"struct.std::_Vector_base"* %136, i32 0, i32 0, !dbg !1229
  %138 = getelementptr inbounds %"struct.std::_Vector_base<Images, std::allocator<Images> >::_Vector_impl"* %137, i32 0, i32 0, !dbg !1229
  %139 = load %class.Images** %138, align 4, !dbg !1229
  %140 = bitcast %"class.std::vector"* %8 to %"struct.std::_Vector_base"*, !dbg !1229
  %141 = getelementptr inbounds %"struct.std::_Vector_base"* %140, i32 0, i32 0, !dbg !1229
  %142 = getelementptr inbounds %"struct.std::_Vector_base<Images, std::allocator<Images> >::_Vector_impl"* %141, i32 0, i32 1, !dbg !1229
  %143 = load %class.Images** %142, align 4, !dbg !1229
  %144 = bitcast %"class.std::vector"* %8 to %"struct.std::_Vector_base"*, !dbg !1230
  %145 = call dereferenceable(1) %"class.std::allocator"* @_ZNSt12_Vector_baseI6ImagesSaIS0_EE19_M_get_Tp_allocatorEv(%"struct.std::_Vector_base"* %144), !dbg !1230
  call void @_ZSt8_DestroyIP6ImagesS0_EvT_S2_RSaIT0_E(%class.Images* %139, %class.Images* %143, %"class.std::allocator"* dereferenceable(1) %145), !dbg !1229
  %146 = bitcast %"class.std::vector"* %8 to %"struct.std::_Vector_base"*, !dbg !1231
  %147 = bitcast %"class.std::vector"* %8 to %"struct.std::_Vector_base"*, !dbg !1231
  %148 = getelementptr inbounds %"struct.std::_Vector_base"* %147, i32 0, i32 0, !dbg !1231
  %149 = getelementptr inbounds %"struct.std::_Vector_base<Images, std::allocator<Images> >::_Vector_impl"* %148, i32 0, i32 0, !dbg !1231
  %150 = load %class.Images** %149, align 4, !dbg !1231
  %151 = bitcast %"class.std::vector"* %8 to %"struct.std::_Vector_base"*, !dbg !1231
  %152 = getelementptr inbounds %"struct.std::_Vector_base"* %151, i32 0, i32 0, !dbg !1231
  %153 = getelementptr inbounds %"struct.std::_Vector_base<Images, std::allocator<Images> >::_Vector_impl"* %152, i32 0, i32 2, !dbg !1231
  %154 = load %class.Images** %153, align 4, !dbg !1231
  %155 = bitcast %"class.std::vector"* %8 to %"struct.std::_Vector_base"*, !dbg !1231
  %156 = getelementptr inbounds %"struct.std::_Vector_base"* %155, i32 0, i32 0, !dbg !1231
  %157 = getelementptr inbounds %"struct.std::_Vector_base<Images, std::allocator<Images> >::_Vector_impl"* %156, i32 0, i32 0, !dbg !1231
  %158 = load %class.Images** %157, align 4, !dbg !1231
  %159 = ptrtoint %class.Images* %154 to i32, !dbg !1231
  %160 = ptrtoint %class.Images* %158 to i32, !dbg !1231
  %161 = sub i32 %159, %160, !dbg !1231
  %162 = sdiv exact i32 %161, 16, !dbg !1231
  call void @_ZNSt12_Vector_baseI6ImagesSaIS0_EE13_M_deallocateEPS0_j(%"struct.std::_Vector_base"* %146, %class.Images* %150, i32 %162), !dbg !1231
  %163 = load %class.Images** %__new_start, align 4, !dbg !1232
  %164 = bitcast %"class.std::vector"* %8 to %"struct.std::_Vector_base"*, !dbg !1232
  %165 = getelementptr inbounds %"struct.std::_Vector_base"* %164, i32 0, i32 0, !dbg !1232
  %166 = getelementptr inbounds %"struct.std::_Vector_base<Images, std::allocator<Images> >::_Vector_impl"* %165, i32 0, i32 0, !dbg !1232
  store %class.Images* %163, %class.Images** %166, align 4, !dbg !1232
  %167 = load %class.Images** %__new_finish, align 4, !dbg !1233
  %168 = bitcast %"class.std::vector"* %8 to %"struct.std::_Vector_base"*, !dbg !1233
  %169 = getelementptr inbounds %"struct.std::_Vector_base"* %168, i32 0, i32 0, !dbg !1233
  %170 = getelementptr inbounds %"struct.std::_Vector_base<Images, std::allocator<Images> >::_Vector_impl"* %169, i32 0, i32 1, !dbg !1233
  store %class.Images* %167, %class.Images** %170, align 4, !dbg !1233
  %171 = load %class.Images** %__new_start, align 4, !dbg !1234
  %172 = load i32* %__len, align 4, !dbg !1234
  %173 = getelementptr inbounds %class.Images* %171, i32 %172, !dbg !1234
  %174 = bitcast %"class.std::vector"* %8 to %"struct.std::_Vector_base"*, !dbg !1234
  %175 = getelementptr inbounds %"struct.std::_Vector_base"* %174, i32 0, i32 0, !dbg !1234
  %176 = getelementptr inbounds %"struct.std::_Vector_base<Images, std::allocator<Images> >::_Vector_impl"* %175, i32 0, i32 2, !dbg !1234
  store %class.Images* %173, %class.Images** %176, align 4, !dbg !1234
  br label %177

; <label>:177                                     ; preds = %135, %18
  ret void, !dbg !1235

; <label>:178                                     ; preds = %134
  %179 = load i8** %4, !dbg !1236
  %180 = load i32* %5, !dbg !1236
  %181 = insertvalue { i8*, i32 } undef, i8* %179, 0, !dbg !1236
  %182 = insertvalue { i8*, i32 } %181, i32 %180, 1, !dbg !1236
  resume { i8*, i32 } %182, !dbg !1236

; <label>:183                                     ; preds = %118
  %184 = landingpad { i8*, i32 } personality i8* bitcast (i32 (...)* @__gxx_personality_v0 to i8*)
          catch i8* null, !dbg !1238
  %185 = extractvalue { i8*, i32 } %184, 0, !dbg !1238
  call void @__clang_call_terminate(i8* %185) #10, !dbg !1238
  unreachable, !dbg !1238

; <label>:186                                     ; preds = %133
  unreachable
}

define linkonce_odr i32 @_ZNSt6vectorI6ImagesSaIS0_EE3endEv(%"class.std::vector"* %this) #0 align 2 {
  %1 = alloca %"class.__gnu_cxx::__normal_iterator", align 4
  %2 = alloca %"class.std::vector"*, align 4
  store %"class.std::vector"* %this, %"class.std::vector"** %2, align 4
  call void @llvm.dbg.declare(metadata !{%"class.std::vector"** %2}, metadata !1240), !dbg !1241
  %3 = load %"class.std::vector"** %2
  %4 = bitcast %"class.std::vector"* %3 to %"struct.std::_Vector_base"*, !dbg !1242
  %5 = getelementptr inbounds %"struct.std::_Vector_base"* %4, i32 0, i32 0, !dbg !1242
  %6 = getelementptr inbounds %"struct.std::_Vector_base<Images, std::allocator<Images> >::_Vector_impl"* %5, i32 0, i32 1, !dbg !1242
  %7 = call %"class.__gnu_cxx::__normal_iterator"* @_ZN9__gnu_cxx17__normal_iteratorIP6ImagesSt6vectorIS1_SaIS1_EEEC2ERKS2_(%"class.__gnu_cxx::__normal_iterator"* %1, %class.Images** dereferenceable(4) %6), !dbg !1242
  %8 = getelementptr %"class.__gnu_cxx::__normal_iterator"* %1, i32 0, i32 0, !dbg !1242
  %9 = load %class.Images** %8, !dbg !1242
  %10 = ptrtoint %class.Images* %9 to i32, !dbg !1242
  ret i32 %10, !dbg !1242
}

; Function Attrs: nounwind
define linkonce_odr %"class.__gnu_cxx::__normal_iterator"* @_ZN9__gnu_cxx17__normal_iteratorIP6ImagesSt6vectorIS1_SaIS1_EEEC2ERKS2_(%"class.__gnu_cxx::__normal_iterator"* returned %this, %class.Images** dereferenceable(4) %__i) unnamed_addr #6 align 2 {
  %1 = alloca %"class.__gnu_cxx::__normal_iterator"*, align 4
  %2 = alloca %class.Images**, align 4
  store %"class.__gnu_cxx::__normal_iterator"* %this, %"class.__gnu_cxx::__normal_iterator"** %1, align 4
  call void @llvm.dbg.declare(metadata !{%"class.__gnu_cxx::__normal_iterator"** %1}, metadata !1243), !dbg !1245
  store %class.Images** %__i, %class.Images*** %2, align 4
  call void @llvm.dbg.declare(metadata !{%class.Images*** %2}, metadata !1246), !dbg !1248
  %3 = load %"class.__gnu_cxx::__normal_iterator"** %1
  %4 = getelementptr inbounds %"class.__gnu_cxx::__normal_iterator"* %3, i32 0, i32 0, !dbg !1249
  %5 = load %class.Images*** %2, align 4, !dbg !1249
  %6 = load %class.Images** %5, align 4, !dbg !1249
  store %class.Images* %6, %class.Images** %4, align 4, !dbg !1249
  ret %"class.__gnu_cxx::__normal_iterator"* %3, !dbg !1250
}

; Function Attrs: inlinehint
define linkonce_odr %class.Images* @_ZSt13copy_backwardIP6ImagesS1_ET0_T_S3_S2_(%class.Images* %__first, %class.Images* %__last, %class.Images* %__result) #7 {
  %1 = alloca %class.Images*, align 4
  %2 = alloca %class.Images*, align 4
  %3 = alloca %class.Images*, align 4
  store %class.Images* %__first, %class.Images** %1, align 4
  call void @llvm.dbg.declare(metadata !{%class.Images** %1}, metadata !1251), !dbg !1253
  store %class.Images* %__last, %class.Images** %2, align 4
  call void @llvm.dbg.declare(metadata !{%class.Images** %2}, metadata !1254), !dbg !1255
  store %class.Images* %__result, %class.Images** %3, align 4
  call void @llvm.dbg.declare(metadata !{%class.Images** %3}, metadata !1256), !dbg !1257
  %4 = load %class.Images** %1, align 4, !dbg !1258
  %5 = call %class.Images* @_ZSt12__miter_baseIP6ImagesENSt11_Miter_baseIT_E13iterator_typeES3_(%class.Images* %4), !dbg !1258
  %6 = load %class.Images** %2, align 4, !dbg !1259
  %7 = call %class.Images* @_ZSt12__miter_baseIP6ImagesENSt11_Miter_baseIT_E13iterator_typeES3_(%class.Images* %6), !dbg !1259
  %8 = load %class.Images** %3, align 4, !dbg !1260
  %9 = call %class.Images* @_ZSt23__copy_move_backward_a2ILb0EP6ImagesS1_ET1_T0_S3_S2_(%class.Images* %5, %class.Images* %7, %class.Images* %8), !dbg !1260
  ret %class.Images* %9, !dbg !1260
}

; Function Attrs: nounwind
define linkonce_odr dereferenceable(4) %class.Images** @_ZNK9__gnu_cxx17__normal_iteratorIP6ImagesSt6vectorIS1_SaIS1_EEE4baseEv(%"class.__gnu_cxx::__normal_iterator"* %this) #6 align 2 {
  %1 = alloca %"class.__gnu_cxx::__normal_iterator"*, align 4
  store %"class.__gnu_cxx::__normal_iterator"* %this, %"class.__gnu_cxx::__normal_iterator"** %1, align 4
  call void @llvm.dbg.declare(metadata !{%"class.__gnu_cxx::__normal_iterator"** %1}, metadata !1261), !dbg !1263
  %2 = load %"class.__gnu_cxx::__normal_iterator"** %1
  %3 = getelementptr inbounds %"class.__gnu_cxx::__normal_iterator"* %2, i32 0, i32 0, !dbg !1264
  ret %class.Images** %3, !dbg !1264
}

; Function Attrs: nounwind
define linkonce_odr dereferenceable(16) %class.Images* @_ZNK9__gnu_cxx17__normal_iteratorIP6ImagesSt6vectorIS1_SaIS1_EEEdeEv(%"class.__gnu_cxx::__normal_iterator"* %this) #6 align 2 {
  %1 = alloca %"class.__gnu_cxx::__normal_iterator"*, align 4
  store %"class.__gnu_cxx::__normal_iterator"* %this, %"class.__gnu_cxx::__normal_iterator"** %1, align 4
  call void @llvm.dbg.declare(metadata !{%"class.__gnu_cxx::__normal_iterator"** %1}, metadata !1265), !dbg !1266
  %2 = load %"class.__gnu_cxx::__normal_iterator"** %1
  %3 = getelementptr inbounds %"class.__gnu_cxx::__normal_iterator"* %2, i32 0, i32 0, !dbg !1267
  %4 = load %class.Images** %3, align 4, !dbg !1267
  ret %class.Images* %4, !dbg !1267
}

define linkonce_odr i32 @_ZNKSt6vectorI6ImagesSaIS0_EE12_M_check_lenEjPKc(%"class.std::vector"* %this, i32 %__n, i8* %__s) #0 align 2 {
  %1 = alloca %"class.std::vector"*, align 4
  %2 = alloca i32, align 4
  %3 = alloca i8*, align 4
  %__len = alloca i32, align 4
  %4 = alloca i32, align 4
  store %"class.std::vector"* %this, %"class.std::vector"** %1, align 4
  call void @llvm.dbg.declare(metadata !{%"class.std::vector"** %1}, metadata !1268), !dbg !1270
  store i32 %__n, i32* %2, align 4
  call void @llvm.dbg.declare(metadata !{i32* %2}, metadata !1271), !dbg !1272
  store i8* %__s, i8** %3, align 4
  call void @llvm.dbg.declare(metadata !{i8** %3}, metadata !1273), !dbg !1274
  %5 = load %"class.std::vector"** %1
  %6 = call i32 @_ZNKSt6vectorI6ImagesSaIS0_EE8max_sizeEv(%"class.std::vector"* %5), !dbg !1275
  %7 = call i32 @_ZNKSt6vectorI6ImagesSaIS0_EE4sizeEv(%"class.std::vector"* %5), !dbg !1277
  %8 = sub i32 %6, %7, !dbg !1277
  %9 = load i32* %2, align 4, !dbg !1277
  %10 = icmp ult i32 %8, %9, !dbg !1277
  br i1 %10, label %11, label %13, !dbg !1277

; <label>:11                                      ; preds = %0
  %12 = load i8** %3, align 4, !dbg !1278
  call void @_ZSt20__throw_length_errorPKc(i8* %12) #13, !dbg !1278
  unreachable, !dbg !1278

; <label>:13                                      ; preds = %0
  call void @llvm.dbg.declare(metadata !{i32* %__len}, metadata !1279), !dbg !1280
  %14 = call i32 @_ZNKSt6vectorI6ImagesSaIS0_EE4sizeEv(%"class.std::vector"* %5), !dbg !1281
  %15 = call i32 @_ZNKSt6vectorI6ImagesSaIS0_EE4sizeEv(%"class.std::vector"* %5), !dbg !1282
  store i32 %15, i32* %4, !dbg !1282
  %16 = call dereferenceable(4) i32* @_ZSt3maxIjERKT_S2_S2_(i32* dereferenceable(4) %4, i32* dereferenceable(4) %2), !dbg !1283
  %17 = load i32* %16, !dbg !1283
  %18 = add i32 %14, %17, !dbg !1283
  store i32 %18, i32* %__len, align 4, !dbg !1283
  %19 = load i32* %__len, align 4, !dbg !1284
  %20 = call i32 @_ZNKSt6vectorI6ImagesSaIS0_EE4sizeEv(%"class.std::vector"* %5), !dbg !1285
  %21 = icmp ult i32 %19, %20, !dbg !1285
  br i1 %21, label %26, label %22, !dbg !1285

; <label>:22                                      ; preds = %13
  %23 = load i32* %__len, align 4, !dbg !1286
  %24 = call i32 @_ZNKSt6vectorI6ImagesSaIS0_EE8max_sizeEv(%"class.std::vector"* %5), !dbg !1288
  %25 = icmp ugt i32 %23, %24, !dbg !1288
  br i1 %25, label %26, label %28, !dbg !1288

; <label>:26                                      ; preds = %22, %13
  %27 = call i32 @_ZNKSt6vectorI6ImagesSaIS0_EE8max_sizeEv(%"class.std::vector"* %5), !dbg !1289
  br label %30, !dbg !1289

; <label>:28                                      ; preds = %22
  %29 = load i32* %__len, align 4, !dbg !1292
  br label %30, !dbg !1292

; <label>:30                                      ; preds = %28, %26
  %31 = phi i32 [ %27, %26 ], [ %29, %28 ], !dbg !1294
  ret i32 %31, !dbg !1295
}

; Function Attrs: inlinehint
define linkonce_odr i32 @_ZN9__gnu_cxxmiIP6ImagesSt6vectorIS1_SaIS1_EEEENS_17__normal_iteratorIT_T0_E15difference_typeERKS9_SC_(%"class.__gnu_cxx::__normal_iterator"* dereferenceable(4) %__lhs, %"class.__gnu_cxx::__normal_iterator"* dereferenceable(4) %__rhs) #7 {
  %1 = alloca %"class.__gnu_cxx::__normal_iterator"*, align 4
  %2 = alloca %"class.__gnu_cxx::__normal_iterator"*, align 4
  store %"class.__gnu_cxx::__normal_iterator"* %__lhs, %"class.__gnu_cxx::__normal_iterator"** %1, align 4
  call void @llvm.dbg.declare(metadata !{%"class.__gnu_cxx::__normal_iterator"** %1}, metadata !1298), !dbg !1299
  store %"class.__gnu_cxx::__normal_iterator"* %__rhs, %"class.__gnu_cxx::__normal_iterator"** %2, align 4
  call void @llvm.dbg.declare(metadata !{%"class.__gnu_cxx::__normal_iterator"** %2}, metadata !1300), !dbg !1301
  %3 = load %"class.__gnu_cxx::__normal_iterator"** %1, align 4, !dbg !1302
  %4 = call dereferenceable(4) %class.Images** @_ZNK9__gnu_cxx17__normal_iteratorIP6ImagesSt6vectorIS1_SaIS1_EEE4baseEv(%"class.__gnu_cxx::__normal_iterator"* %3), !dbg !1302
  %5 = load %class.Images** %4, !dbg !1302
  %6 = load %"class.__gnu_cxx::__normal_iterator"** %2, align 4, !dbg !1303
  %7 = call dereferenceable(4) %class.Images** @_ZNK9__gnu_cxx17__normal_iteratorIP6ImagesSt6vectorIS1_SaIS1_EEE4baseEv(%"class.__gnu_cxx::__normal_iterator"* %6), !dbg !1303
  %8 = load %class.Images** %7, !dbg !1303
  %9 = ptrtoint %class.Images* %5 to i32, !dbg !1303
  %10 = ptrtoint %class.Images* %8 to i32, !dbg !1303
  %11 = sub i32 %9, %10, !dbg !1303
  %12 = sdiv exact i32 %11, 16, !dbg !1303
  ret i32 %12, !dbg !1303
}

define linkonce_odr i32 @_ZNSt6vectorI6ImagesSaIS0_EE5beginEv(%"class.std::vector"* %this) #0 align 2 {
  %1 = alloca %"class.__gnu_cxx::__normal_iterator", align 4
  %2 = alloca %"class.std::vector"*, align 4
  store %"class.std::vector"* %this, %"class.std::vector"** %2, align 4
  call void @llvm.dbg.declare(metadata !{%"class.std::vector"** %2}, metadata !1304), !dbg !1305
  %3 = load %"class.std::vector"** %2
  %4 = bitcast %"class.std::vector"* %3 to %"struct.std::_Vector_base"*, !dbg !1306
  %5 = getelementptr inbounds %"struct.std::_Vector_base"* %4, i32 0, i32 0, !dbg !1306
  %6 = getelementptr inbounds %"struct.std::_Vector_base<Images, std::allocator<Images> >::_Vector_impl"* %5, i32 0, i32 0, !dbg !1306
  %7 = call %"class.__gnu_cxx::__normal_iterator"* @_ZN9__gnu_cxx17__normal_iteratorIP6ImagesSt6vectorIS1_SaIS1_EEEC2ERKS2_(%"class.__gnu_cxx::__normal_iterator"* %1, %class.Images** dereferenceable(4) %6), !dbg !1306
  %8 = getelementptr %"class.__gnu_cxx::__normal_iterator"* %1, i32 0, i32 0, !dbg !1306
  %9 = load %class.Images** %8, !dbg !1306
  %10 = ptrtoint %class.Images* %9 to i32, !dbg !1306
  ret i32 %10, !dbg !1306
}

define linkonce_odr %class.Images* @_ZNSt12_Vector_baseI6ImagesSaIS0_EE11_M_allocateEj(%"struct.std::_Vector_base"* %this, i32 %__n) #0 align 2 {
  %1 = alloca %"struct.std::_Vector_base"*, align 4
  %2 = alloca i32, align 4
  store %"struct.std::_Vector_base"* %this, %"struct.std::_Vector_base"** %1, align 4
  call void @llvm.dbg.declare(metadata !{%"struct.std::_Vector_base"** %1}, metadata !1307), !dbg !1309
  store i32 %__n, i32* %2, align 4
  call void @llvm.dbg.declare(metadata !{i32* %2}, metadata !1310), !dbg !1311
  %3 = load %"struct.std::_Vector_base"** %1
  %4 = load i32* %2, align 4, !dbg !1312
  %5 = icmp ne i32 %4, 0, !dbg !1312
  br i1 %5, label %6, label %11, !dbg !1312

; <label>:6                                       ; preds = %0
  %7 = getelementptr inbounds %"struct.std::_Vector_base"* %3, i32 0, i32 0, !dbg !1313
  %8 = bitcast %"struct.std::_Vector_base<Images, std::allocator<Images> >::_Vector_impl"* %7 to %"class.std::allocator"*, !dbg !1313
  %9 = load i32* %2, align 4, !dbg !1313
  %10 = call %class.Images* @_ZN9__gnu_cxx14__alloc_traitsISaI6ImagesEE8allocateERS2_j(%"class.std::allocator"* dereferenceable(1) %8, i32 %9), !dbg !1313
  br label %12, !dbg !1313

; <label>:11                                      ; preds = %0
  br label %12, !dbg !1315

; <label>:12                                      ; preds = %11, %6
  %13 = phi %class.Images* [ %10, %6 ], [ null, %11 ], !dbg !1317
  ret %class.Images* %13, !dbg !1318
}

; Function Attrs: inlinehint
define linkonce_odr %class.Images* @_ZSt34__uninitialized_move_if_noexcept_aIP6ImagesS1_SaIS0_EET0_T_S4_S3_RT1_(%class.Images* %__first, %class.Images* %__last, %class.Images* %__result, %"class.std::allocator"* dereferenceable(1) %__alloc) #7 {
  %1 = alloca %class.Images*, align 4
  %2 = alloca %class.Images*, align 4
  %3 = alloca %class.Images*, align 4
  %4 = alloca %"class.std::allocator"*, align 4
  store %class.Images* %__first, %class.Images** %1, align 4
  call void @llvm.dbg.declare(metadata !{%class.Images** %1}, metadata !1321), !dbg !1323
  store %class.Images* %__last, %class.Images** %2, align 4
  call void @llvm.dbg.declare(metadata !{%class.Images** %2}, metadata !1324), !dbg !1325
  store %class.Images* %__result, %class.Images** %3, align 4
  call void @llvm.dbg.declare(metadata !{%class.Images** %3}, metadata !1326), !dbg !1327
  store %"class.std::allocator"* %__alloc, %"class.std::allocator"** %4, align 4
  call void @llvm.dbg.declare(metadata !{%"class.std::allocator"** %4}, metadata !1328), !dbg !1329
  %5 = load %class.Images** %1, align 4, !dbg !1330
  %6 = load %class.Images** %2, align 4, !dbg !1330
  %7 = load %class.Images** %3, align 4, !dbg !1330
  %8 = load %"class.std::allocator"** %4, align 4, !dbg !1330
  %9 = call %class.Images* @_ZSt22__uninitialized_copy_aIP6ImagesS1_S0_ET0_T_S3_S2_RSaIT1_E(%class.Images* %5, %class.Images* %6, %class.Images* %7, %"class.std::allocator"* dereferenceable(1) %8), !dbg !1330
  ret %class.Images* %9, !dbg !1330
}

; Function Attrs: nounwind
define linkonce_odr dereferenceable(1) %"class.std::allocator"* @_ZNSt12_Vector_baseI6ImagesSaIS0_EE19_M_get_Tp_allocatorEv(%"struct.std::_Vector_base"* %this) #6 align 2 {
  %1 = alloca %"struct.std::_Vector_base"*, align 4
  store %"struct.std::_Vector_base"* %this, %"struct.std::_Vector_base"** %1, align 4
  call void @llvm.dbg.declare(metadata !{%"struct.std::_Vector_base"** %1}, metadata !1331), !dbg !1332
  %2 = load %"struct.std::_Vector_base"** %1
  %3 = getelementptr inbounds %"struct.std::_Vector_base"* %2, i32 0, i32 0, !dbg !1333
  %4 = bitcast %"struct.std::_Vector_base<Images, std::allocator<Images> >::_Vector_impl"* %3 to %"class.std::allocator"*, !dbg !1333
  ret %"class.std::allocator"* %4, !dbg !1333
}

define linkonce_odr void @_ZN9__gnu_cxx14__alloc_traitsISaI6ImagesEE7destroyERS2_PS1_(%"class.std::allocator"* dereferenceable(1) %__a, %class.Images* %__p) #0 align 2 {
  %1 = alloca %"class.std::allocator"*, align 4
  %2 = alloca %class.Images*, align 4
  store %"class.std::allocator"* %__a, %"class.std::allocator"** %1, align 4
  call void @llvm.dbg.declare(metadata !{%"class.std::allocator"** %1}, metadata !1334), !dbg !1335
  store %class.Images* %__p, %class.Images** %2, align 4
  call void @llvm.dbg.declare(metadata !{%class.Images** %2}, metadata !1336), !dbg !1337
  %3 = load %"class.std::allocator"** %1, align 4, !dbg !1338
  %4 = bitcast %"class.std::allocator"* %3 to %"class.__gnu_cxx::new_allocator"*, !dbg !1338
  %5 = load %class.Images** %2, align 4, !dbg !1338
  call void @_ZN9__gnu_cxx13new_allocatorI6ImagesE7destroyEPS1_(%"class.__gnu_cxx::new_allocator"* %4, %class.Images* %5), !dbg !1338
  ret void, !dbg !1339
}

; Function Attrs: inlinehint
define linkonce_odr void @_ZSt8_DestroyIP6ImagesS0_EvT_S2_RSaIT0_E(%class.Images* %__first, %class.Images* %__last, %"class.std::allocator"* dereferenceable(1)) #7 {
  %2 = alloca %class.Images*, align 4
  %3 = alloca %class.Images*, align 4
  %4 = alloca %"class.std::allocator"*, align 4
  store %class.Images* %__first, %class.Images** %2, align 4
  call void @llvm.dbg.declare(metadata !{%class.Images** %2}, metadata !1340), !dbg !1342
  store %class.Images* %__last, %class.Images** %3, align 4
  call void @llvm.dbg.declare(metadata !{%class.Images** %3}, metadata !1343), !dbg !1344
  store %"class.std::allocator"* %0, %"class.std::allocator"** %4, align 4
  call void @llvm.dbg.declare(metadata !{%"class.std::allocator"** %4}, metadata !1345), !dbg !1346
  %5 = load %class.Images** %2, align 4, !dbg !1347
  %6 = load %class.Images** %3, align 4, !dbg !1347
  call void @_ZSt8_DestroyIP6ImagesEvT_S2_(%class.Images* %5, %class.Images* %6), !dbg !1347
  ret void, !dbg !1348
}

define linkonce_odr void @_ZNSt12_Vector_baseI6ImagesSaIS0_EE13_M_deallocateEPS0_j(%"struct.std::_Vector_base"* %this, %class.Images* %__p, i32 %__n) #0 align 2 {
  %1 = alloca %"struct.std::_Vector_base"*, align 4
  %2 = alloca %class.Images*, align 4
  %3 = alloca i32, align 4
  store %"struct.std::_Vector_base"* %this, %"struct.std::_Vector_base"** %1, align 4
  call void @llvm.dbg.declare(metadata !{%"struct.std::_Vector_base"** %1}, metadata !1349), !dbg !1350
  store %class.Images* %__p, %class.Images** %2, align 4
  call void @llvm.dbg.declare(metadata !{%class.Images** %2}, metadata !1351), !dbg !1352
  store i32 %__n, i32* %3, align 4
  call void @llvm.dbg.declare(metadata !{i32* %3}, metadata !1353), !dbg !1354
  %4 = load %"struct.std::_Vector_base"** %1
  %5 = load %class.Images** %2, align 4, !dbg !1355
  %6 = icmp ne %class.Images* %5, null, !dbg !1355
  br i1 %6, label %7, label %12, !dbg !1355

; <label>:7                                       ; preds = %0
  %8 = getelementptr inbounds %"struct.std::_Vector_base"* %4, i32 0, i32 0, !dbg !1357
  %9 = bitcast %"struct.std::_Vector_base<Images, std::allocator<Images> >::_Vector_impl"* %8 to %"class.std::allocator"*, !dbg !1357
  %10 = load %class.Images** %2, align 4, !dbg !1357
  %11 = load i32* %3, align 4, !dbg !1357
  call void @_ZN9__gnu_cxx14__alloc_traitsISaI6ImagesEE10deallocateERS2_PS1_j(%"class.std::allocator"* dereferenceable(1) %9, %class.Images* %10, i32 %11), !dbg !1357
  br label %12, !dbg !1357

; <label>:12                                      ; preds = %7, %0
  ret void, !dbg !1358
}

declare void @__cxa_rethrow()

declare void @__cxa_end_catch()

define linkonce_odr void @_ZN9__gnu_cxx14__alloc_traitsISaI6ImagesEE10deallocateERS2_PS1_j(%"class.std::allocator"* dereferenceable(1) %__a, %class.Images* %__p, i32 %__n) #0 align 2 {
  %1 = alloca %"class.std::allocator"*, align 4
  %2 = alloca %class.Images*, align 4
  %3 = alloca i32, align 4
  store %"class.std::allocator"* %__a, %"class.std::allocator"** %1, align 4
  call void @llvm.dbg.declare(metadata !{%"class.std::allocator"** %1}, metadata !1359), !dbg !1360
  store %class.Images* %__p, %class.Images** %2, align 4
  call void @llvm.dbg.declare(metadata !{%class.Images** %2}, metadata !1361), !dbg !1362
  store i32 %__n, i32* %3, align 4
  call void @llvm.dbg.declare(metadata !{i32* %3}, metadata !1363), !dbg !1364
  %4 = load %"class.std::allocator"** %1, align 4, !dbg !1365
  %5 = bitcast %"class.std::allocator"* %4 to %"class.__gnu_cxx::new_allocator"*, !dbg !1365
  %6 = load %class.Images** %2, align 4, !dbg !1365
  %7 = load i32* %3, align 4, !dbg !1365
  call void @_ZN9__gnu_cxx13new_allocatorI6ImagesE10deallocateEPS1_j(%"class.__gnu_cxx::new_allocator"* %5, %class.Images* %6, i32 %7), !dbg !1365
  ret void, !dbg !1366
}

; Function Attrs: nounwind
define linkonce_odr void @_ZN9__gnu_cxx13new_allocatorI6ImagesE10deallocateEPS1_j(%"class.__gnu_cxx::new_allocator"* %this, %class.Images* %__p, i32) #6 align 2 {
  %2 = alloca %"class.__gnu_cxx::new_allocator"*, align 4
  %3 = alloca %class.Images*, align 4
  %4 = alloca i32, align 4
  store %"class.__gnu_cxx::new_allocator"* %this, %"class.__gnu_cxx::new_allocator"** %2, align 4
  call void @llvm.dbg.declare(metadata !{%"class.__gnu_cxx::new_allocator"** %2}, metadata !1367), !dbg !1369
  store %class.Images* %__p, %class.Images** %3, align 4
  call void @llvm.dbg.declare(metadata !{%class.Images** %3}, metadata !1370), !dbg !1372
  store i32 %0, i32* %4, align 4
  call void @llvm.dbg.declare(metadata !{i32* %4}, metadata !1373), !dbg !1374
  %5 = load %"class.__gnu_cxx::new_allocator"** %2
  %6 = load %class.Images** %3, align 4, !dbg !1375
  %7 = bitcast %class.Images* %6 to i8*, !dbg !1375
  call void @_ZdlPv(i8* %7) #1, !dbg !1375
  ret void, !dbg !1376
}

; Function Attrs: nobuiltin nounwind
declare void @_ZdlPv(i8*) #8

; Function Attrs: inlinehint
define linkonce_odr void @_ZSt8_DestroyIP6ImagesEvT_S2_(%class.Images* %__first, %class.Images* %__last) #7 {
  %1 = alloca %class.Images*, align 4
  %2 = alloca %class.Images*, align 4
  store %class.Images* %__first, %class.Images** %1, align 4
  call void @llvm.dbg.declare(metadata !{%class.Images** %1}, metadata !1377), !dbg !1378
  store %class.Images* %__last, %class.Images** %2, align 4
  call void @llvm.dbg.declare(metadata !{%class.Images** %2}, metadata !1379), !dbg !1380
  %3 = load %class.Images** %1, align 4, !dbg !1381
  %4 = load %class.Images** %2, align 4, !dbg !1381
  call void @_ZNSt12_Destroy_auxILb1EE9__destroyIP6ImagesEEvT_S4_(%class.Images* %3, %class.Images* %4), !dbg !1381
  ret void, !dbg !1382
}

; Function Attrs: nounwind
define linkonce_odr void @_ZNSt12_Destroy_auxILb1EE9__destroyIP6ImagesEEvT_S4_(%class.Images*, %class.Images*) #6 align 2 {
  %3 = alloca %class.Images*, align 4
  %4 = alloca %class.Images*, align 4
  store %class.Images* %0, %class.Images** %3, align 4
  call void @llvm.dbg.declare(metadata !{%class.Images** %3}, metadata !1383), !dbg !1384
  store %class.Images* %1, %class.Images** %4, align 4
  call void @llvm.dbg.declare(metadata !{%class.Images** %4}, metadata !1385), !dbg !1386
  ret void, !dbg !1387
}

; Function Attrs: nounwind
define linkonce_odr void @_ZN9__gnu_cxx13new_allocatorI6ImagesE7destroyEPS1_(%"class.__gnu_cxx::new_allocator"* %this, %class.Images* %__p) #6 align 2 {
  %1 = alloca %"class.__gnu_cxx::new_allocator"*, align 4
  %2 = alloca %class.Images*, align 4
  store %"class.__gnu_cxx::new_allocator"* %this, %"class.__gnu_cxx::new_allocator"** %1, align 4
  call void @llvm.dbg.declare(metadata !{%"class.__gnu_cxx::new_allocator"** %1}, metadata !1388), !dbg !1389
  store %class.Images* %__p, %class.Images** %2, align 4
  call void @llvm.dbg.declare(metadata !{%class.Images** %2}, metadata !1390), !dbg !1391
  %3 = load %"class.__gnu_cxx::new_allocator"** %1
  %4 = load %class.Images** %2, align 4, !dbg !1392
  ret void, !dbg !1393
}

; Function Attrs: inlinehint
define linkonce_odr %class.Images* @_ZSt22__uninitialized_copy_aIP6ImagesS1_S0_ET0_T_S3_S2_RSaIT1_E(%class.Images* %__first, %class.Images* %__last, %class.Images* %__result, %"class.std::allocator"* dereferenceable(1)) #7 {
  %2 = alloca %class.Images*, align 4
  %3 = alloca %class.Images*, align 4
  %4 = alloca %class.Images*, align 4
  %5 = alloca %"class.std::allocator"*, align 4
  store %class.Images* %__first, %class.Images** %2, align 4
  call void @llvm.dbg.declare(metadata !{%class.Images** %2}, metadata !1394), !dbg !1395
  store %class.Images* %__last, %class.Images** %3, align 4
  call void @llvm.dbg.declare(metadata !{%class.Images** %3}, metadata !1396), !dbg !1397
  store %class.Images* %__result, %class.Images** %4, align 4
  call void @llvm.dbg.declare(metadata !{%class.Images** %4}, metadata !1398), !dbg !1399
  store %"class.std::allocator"* %0, %"class.std::allocator"** %5, align 4
  call void @llvm.dbg.declare(metadata !{%"class.std::allocator"** %5}, metadata !1400), !dbg !1401
  %6 = load %class.Images** %2, align 4, !dbg !1402
  %7 = load %class.Images** %3, align 4, !dbg !1402
  %8 = load %class.Images** %4, align 4, !dbg !1402
  %9 = call %class.Images* @_ZSt18uninitialized_copyIP6ImagesS1_ET0_T_S3_S2_(%class.Images* %6, %class.Images* %7, %class.Images* %8), !dbg !1402
  ret %class.Images* %9, !dbg !1402
}

; Function Attrs: inlinehint
define linkonce_odr %class.Images* @_ZSt18uninitialized_copyIP6ImagesS1_ET0_T_S3_S2_(%class.Images* %__first, %class.Images* %__last, %class.Images* %__result) #7 {
  %1 = alloca %class.Images*, align 4
  %2 = alloca %class.Images*, align 4
  %3 = alloca %class.Images*, align 4
  %__assignable = alloca i8, align 1
  store %class.Images* %__first, %class.Images** %1, align 4
  call void @llvm.dbg.declare(metadata !{%class.Images** %1}, metadata !1403), !dbg !1404
  store %class.Images* %__last, %class.Images** %2, align 4
  call void @llvm.dbg.declare(metadata !{%class.Images** %2}, metadata !1405), !dbg !1406
  store %class.Images* %__result, %class.Images** %3, align 4
  call void @llvm.dbg.declare(metadata !{%class.Images** %3}, metadata !1407), !dbg !1408
  call void @llvm.dbg.declare(metadata !{i8* %__assignable}, metadata !1409), !dbg !1411
  store i8 1, i8* %__assignable, align 1, !dbg !1412
  %4 = load %class.Images** %1, align 4, !dbg !1413
  %5 = load %class.Images** %2, align 4, !dbg !1413
  %6 = load %class.Images** %3, align 4, !dbg !1413
  %7 = call %class.Images* @_ZNSt20__uninitialized_copyILb0EE13__uninit_copyIP6ImagesS3_EET0_T_S5_S4_(%class.Images* %4, %class.Images* %5, %class.Images* %6), !dbg !1413
  ret %class.Images* %7, !dbg !1413
}

define linkonce_odr %class.Images* @_ZNSt20__uninitialized_copyILb0EE13__uninit_copyIP6ImagesS3_EET0_T_S5_S4_(%class.Images* %__first, %class.Images* %__last, %class.Images* %__result) #0 align 2 {
  %1 = alloca %class.Images*, align 4
  %2 = alloca %class.Images*, align 4
  %3 = alloca %class.Images*, align 4
  %__cur = alloca %class.Images*, align 4
  %4 = alloca i8*
  %5 = alloca i32
  store %class.Images* %__first, %class.Images** %1, align 4
  call void @llvm.dbg.declare(metadata !{%class.Images** %1}, metadata !1414), !dbg !1415
  store %class.Images* %__last, %class.Images** %2, align 4
  call void @llvm.dbg.declare(metadata !{%class.Images** %2}, metadata !1416), !dbg !1417
  store %class.Images* %__result, %class.Images** %3, align 4
  call void @llvm.dbg.declare(metadata !{%class.Images** %3}, metadata !1418), !dbg !1419
  call void @llvm.dbg.declare(metadata !{%class.Images** %__cur}, metadata !1420), !dbg !1421
  %6 = load %class.Images** %3, align 4, !dbg !1422
  store %class.Images* %6, %class.Images** %__cur, align 4, !dbg !1422
  br label %7, !dbg !1423

; <label>:7                                       ; preds = %17, %0
  %8 = load %class.Images** %1, align 4, !dbg !1426
  %9 = load %class.Images** %2, align 4, !dbg !1426
  %10 = icmp ne %class.Images* %8, %9, !dbg !1426
  br i1 %10, label %11, label %32, !dbg !1426

; <label>:11                                      ; preds = %7
  %12 = load %class.Images** %__cur, align 4, !dbg !1429
  %13 = invoke %class.Images* @_ZSt11__addressofI6ImagesEPT_RS1_(%class.Images* dereferenceable(16) %12)
          to label %14 unwind label %22, !dbg !1429

; <label>:14                                      ; preds = %11
  %15 = load %class.Images** %1, align 4, !dbg !1430
  invoke void @_ZSt10_ConstructI6ImagesS0_EvPT_RKT0_(%class.Images* %13, %class.Images* dereferenceable(16) %15)
          to label %16 unwind label %22, !dbg !1430

; <label>:16                                      ; preds = %14
  br label %17, !dbg !1432

; <label>:17                                      ; preds = %16
  %18 = load %class.Images** %1, align 4, !dbg !1434
  %19 = getelementptr inbounds %class.Images* %18, i32 1, !dbg !1434
  store %class.Images* %19, %class.Images** %1, align 4, !dbg !1434
  %20 = load %class.Images** %__cur, align 4, !dbg !1434
  %21 = getelementptr inbounds %class.Images* %20, i32 1, !dbg !1434
  store %class.Images* %21, %class.Images** %__cur, align 4, !dbg !1434
  br label %7, !dbg !1434

; <label>:22                                      ; preds = %14, %11
  %23 = landingpad { i8*, i32 } personality i8* bitcast (i32 (...)* @__gxx_personality_v0 to i8*)
          catch i8* null, !dbg !1435
  %24 = extractvalue { i8*, i32 } %23, 0, !dbg !1435
  store i8* %24, i8** %4, !dbg !1435
  %25 = extractvalue { i8*, i32 } %23, 1, !dbg !1435
  store i32 %25, i32* %5, !dbg !1435
  br label %26, !dbg !1435

; <label>:26                                      ; preds = %22
  %27 = load i8** %4, !dbg !1436
  %28 = call i8* @__cxa_begin_catch(i8* %27) #1, !dbg !1436
  %29 = load %class.Images** %3, align 4, !dbg !1437
  %30 = load %class.Images** %__cur, align 4, !dbg !1437
  invoke void @_ZSt8_DestroyIP6ImagesEvT_S2_(%class.Images* %29, %class.Images* %30)
          to label %31 unwind label %34, !dbg !1437

; <label>:31                                      ; preds = %26
  invoke void @__cxa_rethrow() #13
          to label %48 unwind label %34, !dbg !1439

; <label>:32                                      ; preds = %7
  %33 = load %class.Images** %__cur, align 4, !dbg !1440
  ret %class.Images* %33, !dbg !1440

; <label>:34                                      ; preds = %31, %26
  %35 = landingpad { i8*, i32 } personality i8* bitcast (i32 (...)* @__gxx_personality_v0 to i8*)
          cleanup, !dbg !1441
  %36 = extractvalue { i8*, i32 } %35, 0, !dbg !1441
  store i8* %36, i8** %4, !dbg !1441
  %37 = extractvalue { i8*, i32 } %35, 1, !dbg !1441
  store i32 %37, i32* %5, !dbg !1441
  invoke void @__cxa_end_catch()
          to label %38 unwind label %45, !dbg !1442

; <label>:38                                      ; preds = %34
  br label %40, !dbg !1443
                                                  ; No predecessors!
  call void @llvm.trap(), !dbg !1445
  unreachable, !dbg !1445

; <label>:40                                      ; preds = %38
  %41 = load i8** %4, !dbg !1446
  %42 = load i32* %5, !dbg !1446
  %43 = insertvalue { i8*, i32 } undef, i8* %41, 0, !dbg !1446
  %44 = insertvalue { i8*, i32 } %43, i32 %42, 1, !dbg !1446
  resume { i8*, i32 } %44, !dbg !1446

; <label>:45                                      ; preds = %34
  %46 = landingpad { i8*, i32 } personality i8* bitcast (i32 (...)* @__gxx_personality_v0 to i8*)
          catch i8* null, !dbg !1448
  %47 = extractvalue { i8*, i32 } %46, 0, !dbg !1448
  call void @__clang_call_terminate(i8* %47) #10, !dbg !1448
  unreachable, !dbg !1448

; <label>:48                                      ; preds = %31
  unreachable
}

; Function Attrs: inlinehint nounwind
define linkonce_odr void @_ZSt10_ConstructI6ImagesS0_EvPT_RKT0_(%class.Images* %__p, %class.Images* dereferenceable(16) %__value) #9 {
  %1 = alloca %class.Images*, align 4
  %2 = alloca %class.Images*, align 4
  store %class.Images* %__p, %class.Images** %1, align 4
  call void @llvm.dbg.declare(metadata !{%class.Images** %1}, metadata !1450), !dbg !1451
  store %class.Images* %__value, %class.Images** %2, align 4
  call void @llvm.dbg.declare(metadata !{%class.Images** %2}, metadata !1452), !dbg !1453
  %3 = load %class.Images** %1, align 4, !dbg !1454
  %4 = bitcast %class.Images* %3 to i8*, !dbg !1454
  %5 = icmp eq i8* %4, null, !dbg !1454
  br i1 %5, label %11, label %6, !dbg !1454

; <label>:6                                       ; preds = %0
  %7 = bitcast i8* %4 to %class.Images*, !dbg !1455
  %8 = load %class.Images** %2, align 4, !dbg !1455
  %9 = bitcast %class.Images* %7 to i8*, !dbg !1455
  %10 = bitcast %class.Images* %8 to i8*, !dbg !1455
  call void @llvm.memcpy.p0i8.p0i8.i32(i8* %9, i8* %10, i32 16, i32 4, i1 false), !dbg !1455
  br label %11, !dbg !1455

; <label>:11                                      ; preds = %6, %0
  %12 = phi %class.Images* [ %7, %6 ], [ null, %0 ], !dbg !1454
  ret void, !dbg !1457
}

; Function Attrs: inlinehint nounwind
define linkonce_odr %class.Images* @_ZSt11__addressofI6ImagesEPT_RS1_(%class.Images* dereferenceable(16) %__r) #9 {
  %1 = alloca %class.Images*, align 4
  store %class.Images* %__r, %class.Images** %1, align 4
  call void @llvm.dbg.declare(metadata !{%class.Images** %1}, metadata !1458), !dbg !1460
  %2 = load %class.Images** %1, align 4, !dbg !1461
  %3 = bitcast %class.Images* %2 to i8*, !dbg !1461
  %4 = bitcast i8* %3 to %class.Images*, !dbg !1461
  ret %class.Images* %4, !dbg !1461
}

; Function Attrs: noreturn nounwind
declare void @llvm.trap() #10

define linkonce_odr %class.Images* @_ZN9__gnu_cxx14__alloc_traitsISaI6ImagesEE8allocateERS2_j(%"class.std::allocator"* dereferenceable(1) %__a, i32 %__n) #0 align 2 {
  %1 = alloca %"class.std::allocator"*, align 4
  %2 = alloca i32, align 4
  store %"class.std::allocator"* %__a, %"class.std::allocator"** %1, align 4
  call void @llvm.dbg.declare(metadata !{%"class.std::allocator"** %1}, metadata !1462), !dbg !1463
  store i32 %__n, i32* %2, align 4
  call void @llvm.dbg.declare(metadata !{i32* %2}, metadata !1464), !dbg !1465
  %3 = load %"class.std::allocator"** %1, align 4, !dbg !1466
  %4 = bitcast %"class.std::allocator"* %3 to %"class.__gnu_cxx::new_allocator"*, !dbg !1466
  %5 = load i32* %2, align 4, !dbg !1466
  %6 = call %class.Images* @_ZN9__gnu_cxx13new_allocatorI6ImagesE8allocateEjPKv(%"class.__gnu_cxx::new_allocator"* %4, i32 %5, i8* null), !dbg !1466
  ret %class.Images* %6, !dbg !1466
}

define linkonce_odr %class.Images* @_ZN9__gnu_cxx13new_allocatorI6ImagesE8allocateEjPKv(%"class.__gnu_cxx::new_allocator"* %this, i32 %__n, i8*) #0 align 2 {
  %2 = alloca %"class.__gnu_cxx::new_allocator"*, align 4
  %3 = alloca i32, align 4
  %4 = alloca i8*, align 4
  store %"class.__gnu_cxx::new_allocator"* %this, %"class.__gnu_cxx::new_allocator"** %2, align 4
  call void @llvm.dbg.declare(metadata !{%"class.__gnu_cxx::new_allocator"** %2}, metadata !1467), !dbg !1468
  store i32 %__n, i32* %3, align 4
  call void @llvm.dbg.declare(metadata !{i32* %3}, metadata !1469), !dbg !1470
  store i8* %0, i8** %4, align 4
  call void @llvm.dbg.declare(metadata !{i8** %4}, metadata !1471), !dbg !1472
  %5 = load %"class.__gnu_cxx::new_allocator"** %2
  %6 = load i32* %3, align 4, !dbg !1473
  %7 = call i32 @_ZNK9__gnu_cxx13new_allocatorI6ImagesE8max_sizeEv(%"class.__gnu_cxx::new_allocator"* %5) #1, !dbg !1475
  %8 = icmp ugt i32 %6, %7, !dbg !1475
  br i1 %8, label %9, label %10, !dbg !1475

; <label>:9                                       ; preds = %1
  call void @_ZSt17__throw_bad_allocv() #13, !dbg !1476
  unreachable, !dbg !1476

; <label>:10                                      ; preds = %1
  %11 = load i32* %3, align 4, !dbg !1477
  %12 = mul i32 %11, 16, !dbg !1477
  %13 = call noalias i8* @_Znwj(i32 %12), !dbg !1477
  %14 = bitcast i8* %13 to %class.Images*, !dbg !1477
  ret %class.Images* %14, !dbg !1477
}

; Function Attrs: nounwind
define linkonce_odr i32 @_ZNK9__gnu_cxx13new_allocatorI6ImagesE8max_sizeEv(%"class.__gnu_cxx::new_allocator"* %this) #6 align 2 {
  %1 = alloca %"class.__gnu_cxx::new_allocator"*, align 4
  store %"class.__gnu_cxx::new_allocator"* %this, %"class.__gnu_cxx::new_allocator"** %1, align 4
  call void @llvm.dbg.declare(metadata !{%"class.__gnu_cxx::new_allocator"** %1}, metadata !1478), !dbg !1480
  %2 = load %"class.__gnu_cxx::new_allocator"** %1
  ret i32 268435455, !dbg !1481
}

; Function Attrs: noreturn
declare void @_ZSt17__throw_bad_allocv() #11

; Function Attrs: nobuiltin
declare noalias i8* @_Znwj(i32) #4

define linkonce_odr i32 @_ZNKSt6vectorI6ImagesSaIS0_EE8max_sizeEv(%"class.std::vector"* %this) #0 align 2 {
  %1 = alloca %"class.std::vector"*, align 4
  store %"class.std::vector"* %this, %"class.std::vector"** %1, align 4
  call void @llvm.dbg.declare(metadata !{%"class.std::vector"** %1}, metadata !1482), !dbg !1483
  %2 = load %"class.std::vector"** %1
  %3 = bitcast %"class.std::vector"* %2 to %"struct.std::_Vector_base"*, !dbg !1484
  %4 = call dereferenceable(1) %"class.std::allocator"* @_ZNKSt12_Vector_baseI6ImagesSaIS0_EE19_M_get_Tp_allocatorEv(%"struct.std::_Vector_base"* %3), !dbg !1484
  %5 = call i32 @_ZN9__gnu_cxx14__alloc_traitsISaI6ImagesEE8max_sizeERKS2_(%"class.std::allocator"* dereferenceable(1) %4), !dbg !1485
  ret i32 %5, !dbg !1485
}

; Function Attrs: nounwind
define linkonce_odr i32 @_ZNKSt6vectorI6ImagesSaIS0_EE4sizeEv(%"class.std::vector"* %this) #6 align 2 {
  %1 = alloca %"class.std::vector"*, align 4
  store %"class.std::vector"* %this, %"class.std::vector"** %1, align 4
  call void @llvm.dbg.declare(metadata !{%"class.std::vector"** %1}, metadata !1486), !dbg !1487
  %2 = load %"class.std::vector"** %1
  %3 = bitcast %"class.std::vector"* %2 to %"struct.std::_Vector_base"*, !dbg !1488
  %4 = getelementptr inbounds %"struct.std::_Vector_base"* %3, i32 0, i32 0, !dbg !1488
  %5 = getelementptr inbounds %"struct.std::_Vector_base<Images, std::allocator<Images> >::_Vector_impl"* %4, i32 0, i32 1, !dbg !1488
  %6 = load %class.Images** %5, align 4, !dbg !1488
  %7 = bitcast %"class.std::vector"* %2 to %"struct.std::_Vector_base"*, !dbg !1488
  %8 = getelementptr inbounds %"struct.std::_Vector_base"* %7, i32 0, i32 0, !dbg !1488
  %9 = getelementptr inbounds %"struct.std::_Vector_base<Images, std::allocator<Images> >::_Vector_impl"* %8, i32 0, i32 0, !dbg !1488
  %10 = load %class.Images** %9, align 4, !dbg !1488
  %11 = ptrtoint %class.Images* %6 to i32, !dbg !1488
  %12 = ptrtoint %class.Images* %10 to i32, !dbg !1488
  %13 = sub i32 %11, %12, !dbg !1488
  %14 = sdiv exact i32 %13, 16, !dbg !1488
  ret i32 %14, !dbg !1488
}

; Function Attrs: noreturn
declare void @_ZSt20__throw_length_errorPKc(i8*) #11

; Function Attrs: inlinehint nounwind
define linkonce_odr dereferenceable(4) i32* @_ZSt3maxIjERKT_S2_S2_(i32* dereferenceable(4) %__a, i32* dereferenceable(4) %__b) #9 {
  %1 = alloca i32*, align 4
  %2 = alloca i32*, align 4
  %3 = alloca i32*, align 4
  store i32* %__a, i32** %2, align 4
  call void @llvm.dbg.declare(metadata !{i32** %2}, metadata !1489), !dbg !1490
  store i32* %__b, i32** %3, align 4
  call void @llvm.dbg.declare(metadata !{i32** %3}, metadata !1491), !dbg !1492
  %4 = load i32** %2, align 4, !dbg !1493
  %5 = load i32* %4, align 4, !dbg !1493
  %6 = load i32** %3, align 4, !dbg !1493
  %7 = load i32* %6, align 4, !dbg !1493
  %8 = icmp ult i32 %5, %7, !dbg !1493
  br i1 %8, label %9, label %11, !dbg !1493

; <label>:9                                       ; preds = %0
  %10 = load i32** %3, align 4, !dbg !1495
  store i32* %10, i32** %1, !dbg !1495
  br label %13, !dbg !1495

; <label>:11                                      ; preds = %0
  %12 = load i32** %2, align 4, !dbg !1496
  store i32* %12, i32** %1, !dbg !1496
  br label %13, !dbg !1496

; <label>:13                                      ; preds = %11, %9
  %14 = load i32** %1, !dbg !1497
  ret i32* %14, !dbg !1497
}

; Function Attrs: nounwind
define linkonce_odr i32 @_ZN9__gnu_cxx14__alloc_traitsISaI6ImagesEE8max_sizeERKS2_(%"class.std::allocator"* dereferenceable(1) %__a) #6 align 2 {
  %1 = alloca %"class.std::allocator"*, align 4
  store %"class.std::allocator"* %__a, %"class.std::allocator"** %1, align 4
  call void @llvm.dbg.declare(metadata !{%"class.std::allocator"** %1}, metadata !1498), !dbg !1499
  %2 = load %"class.std::allocator"** %1, align 4, !dbg !1500
  %3 = bitcast %"class.std::allocator"* %2 to %"class.__gnu_cxx::new_allocator"*, !dbg !1500
  %4 = call i32 @_ZNK9__gnu_cxx13new_allocatorI6ImagesE8max_sizeEv(%"class.__gnu_cxx::new_allocator"* %3) #1, !dbg !1500
  ret i32 %4, !dbg !1500
}

; Function Attrs: nounwind
define linkonce_odr dereferenceable(1) %"class.std::allocator"* @_ZNKSt12_Vector_baseI6ImagesSaIS0_EE19_M_get_Tp_allocatorEv(%"struct.std::_Vector_base"* %this) #6 align 2 {
  %1 = alloca %"struct.std::_Vector_base"*, align 4
  store %"struct.std::_Vector_base"* %this, %"struct.std::_Vector_base"** %1, align 4
  call void @llvm.dbg.declare(metadata !{%"struct.std::_Vector_base"** %1}, metadata !1501), !dbg !1503
  %2 = load %"struct.std::_Vector_base"** %1
  %3 = getelementptr inbounds %"struct.std::_Vector_base"* %2, i32 0, i32 0, !dbg !1504
  %4 = bitcast %"struct.std::_Vector_base<Images, std::allocator<Images> >::_Vector_impl"* %3 to %"class.std::allocator"*, !dbg !1504
  ret %"class.std::allocator"* %4, !dbg !1504
}

; Function Attrs: inlinehint
define linkonce_odr %class.Images* @_ZSt23__copy_move_backward_a2ILb0EP6ImagesS1_ET1_T0_S3_S2_(%class.Images* %__first, %class.Images* %__last, %class.Images* %__result) #7 {
  %1 = alloca %class.Images*, align 4
  %2 = alloca %class.Images*, align 4
  %3 = alloca %class.Images*, align 4
  store %class.Images* %__first, %class.Images** %1, align 4
  call void @llvm.dbg.declare(metadata !{%class.Images** %1}, metadata !1505), !dbg !1506
  store %class.Images* %__last, %class.Images** %2, align 4
  call void @llvm.dbg.declare(metadata !{%class.Images** %2}, metadata !1507), !dbg !1508
  store %class.Images* %__result, %class.Images** %3, align 4
  call void @llvm.dbg.declare(metadata !{%class.Images** %3}, metadata !1509), !dbg !1510
  %4 = load %class.Images** %1, align 4, !dbg !1511
  %5 = call %class.Images* @_ZSt12__niter_baseIP6ImagesENSt11_Niter_baseIT_E13iterator_typeES3_(%class.Images* %4), !dbg !1511
  %6 = load %class.Images** %2, align 4, !dbg !1512
  %7 = call %class.Images* @_ZSt12__niter_baseIP6ImagesENSt11_Niter_baseIT_E13iterator_typeES3_(%class.Images* %6), !dbg !1512
  %8 = load %class.Images** %3, align 4, !dbg !1513
  %9 = call %class.Images* @_ZSt12__niter_baseIP6ImagesENSt11_Niter_baseIT_E13iterator_typeES3_(%class.Images* %8), !dbg !1513
  %10 = call %class.Images* @_ZSt22__copy_move_backward_aILb0EP6ImagesS1_ET1_T0_S3_S2_(%class.Images* %5, %class.Images* %7, %class.Images* %9), !dbg !1514
  ret %class.Images* %10, !dbg !1514
}

; Function Attrs: inlinehint
define linkonce_odr %class.Images* @_ZSt12__miter_baseIP6ImagesENSt11_Miter_baseIT_E13iterator_typeES3_(%class.Images* %__it) #7 {
  %1 = alloca %class.Images*, align 4
  store %class.Images* %__it, %class.Images** %1, align 4
  call void @llvm.dbg.declare(metadata !{%class.Images** %1}, metadata !1515), !dbg !1516
  %2 = load %class.Images** %1, align 4, !dbg !1517
  %3 = call %class.Images* @_ZNSt10_Iter_baseIP6ImagesLb0EE7_S_baseES1_(%class.Images* %2), !dbg !1517
  ret %class.Images* %3, !dbg !1517
}

; Function Attrs: nounwind
define linkonce_odr %class.Images* @_ZNSt10_Iter_baseIP6ImagesLb0EE7_S_baseES1_(%class.Images* %__it) #6 align 2 {
  %1 = alloca %class.Images*, align 4
  store %class.Images* %__it, %class.Images** %1, align 4
  call void @llvm.dbg.declare(metadata !{%class.Images** %1}, metadata !1518), !dbg !1520
  %2 = load %class.Images** %1, align 4, !dbg !1521
  ret %class.Images* %2, !dbg !1521
}

; Function Attrs: inlinehint
define linkonce_odr %class.Images* @_ZSt22__copy_move_backward_aILb0EP6ImagesS1_ET1_T0_S3_S2_(%class.Images* %__first, %class.Images* %__last, %class.Images* %__result) #7 {
  %1 = alloca %class.Images*, align 4
  %2 = alloca %class.Images*, align 4
  %3 = alloca %class.Images*, align 4
  %__simple = alloca i8, align 1
  store %class.Images* %__first, %class.Images** %1, align 4
  call void @llvm.dbg.declare(metadata !{%class.Images** %1}, metadata !1522), !dbg !1523
  store %class.Images* %__last, %class.Images** %2, align 4
  call void @llvm.dbg.declare(metadata !{%class.Images** %2}, metadata !1524), !dbg !1525
  store %class.Images* %__result, %class.Images** %3, align 4
  call void @llvm.dbg.declare(metadata !{%class.Images** %3}, metadata !1526), !dbg !1527
  call void @llvm.dbg.declare(metadata !{i8* %__simple}, metadata !1528), !dbg !1529
  store i8 0, i8* %__simple, align 1, !dbg !1530
  %4 = load %class.Images** %1, align 4, !dbg !1531
  %5 = load %class.Images** %2, align 4, !dbg !1531
  %6 = load %class.Images** %3, align 4, !dbg !1531
  %7 = call %class.Images* @_ZNSt20__copy_move_backwardILb0ELb0ESt26random_access_iterator_tagE13__copy_move_bIP6ImagesS4_EET0_T_S6_S5_(%class.Images* %4, %class.Images* %5, %class.Images* %6), !dbg !1531
  ret %class.Images* %7, !dbg !1531
}

; Function Attrs: inlinehint nounwind
define linkonce_odr %class.Images* @_ZSt12__niter_baseIP6ImagesENSt11_Niter_baseIT_E13iterator_typeES3_(%class.Images* %__it) #9 {
  %1 = alloca %class.Images*, align 4
  store %class.Images* %__it, %class.Images** %1, align 4
  call void @llvm.dbg.declare(metadata !{%class.Images** %1}, metadata !1532), !dbg !1533
  %2 = load %class.Images** %1, align 4, !dbg !1534
  %3 = call %class.Images* @_ZNSt10_Iter_baseIP6ImagesLb0EE7_S_baseES1_(%class.Images* %2), !dbg !1534
  ret %class.Images* %3, !dbg !1534
}

; Function Attrs: nounwind
define linkonce_odr %class.Images* @_ZNSt20__copy_move_backwardILb0ELb0ESt26random_access_iterator_tagE13__copy_move_bIP6ImagesS4_EET0_T_S6_S5_(%class.Images* %__first, %class.Images* %__last, %class.Images* %__result) #6 align 2 {
  %1 = alloca %class.Images*, align 4
  %2 = alloca %class.Images*, align 4
  %3 = alloca %class.Images*, align 4
  %__n = alloca i32, align 4
  store %class.Images* %__first, %class.Images** %1, align 4
  call void @llvm.dbg.declare(metadata !{%class.Images** %1}, metadata !1535), !dbg !1536
  store %class.Images* %__last, %class.Images** %2, align 4
  call void @llvm.dbg.declare(metadata !{%class.Images** %2}, metadata !1537), !dbg !1538
  store %class.Images* %__result, %class.Images** %3, align 4
  call void @llvm.dbg.declare(metadata !{%class.Images** %3}, metadata !1539), !dbg !1540
  call void @llvm.dbg.declare(metadata !{i32* %__n}, metadata !1541), !dbg !1542
  %4 = load %class.Images** %2, align 4, !dbg !1543
  %5 = load %class.Images** %1, align 4, !dbg !1543
  %6 = ptrtoint %class.Images* %4 to i32, !dbg !1543
  %7 = ptrtoint %class.Images* %5 to i32, !dbg !1543
  %8 = sub i32 %6, %7, !dbg !1543
  %9 = sdiv exact i32 %8, 16, !dbg !1543
  store i32 %9, i32* %__n, align 4, !dbg !1543
  br label %10, !dbg !1543

; <label>:10                                      ; preds = %20, %0
  %11 = load i32* %__n, align 4, !dbg !1545
  %12 = icmp sgt i32 %11, 0, !dbg !1545
  br i1 %12, label %13, label %23, !dbg !1545

; <label>:13                                      ; preds = %10
  %14 = load %class.Images** %3, align 4, !dbg !1548
  %15 = getelementptr inbounds %class.Images* %14, i32 -1, !dbg !1548
  store %class.Images* %15, %class.Images** %3, align 4, !dbg !1548
  %16 = load %class.Images** %2, align 4, !dbg !1548
  %17 = getelementptr inbounds %class.Images* %16, i32 -1, !dbg !1548
  store %class.Images* %17, %class.Images** %2, align 4, !dbg !1548
  %18 = bitcast %class.Images* %15 to i8*, !dbg !1548
  %19 = bitcast %class.Images* %17 to i8*, !dbg !1548
  call void @llvm.memcpy.p0i8.p0i8.i32(i8* %18, i8* %19, i32 16, i32 4, i1 false), !dbg !1548
  br label %20, !dbg !1548

; <label>:20                                      ; preds = %13
  %21 = load i32* %__n, align 4, !dbg !1549
  %22 = add nsw i32 %21, -1, !dbg !1549
  store i32 %22, i32* %__n, align 4, !dbg !1549
  br label %10, !dbg !1549

; <label>:23                                      ; preds = %10
  %24 = load %class.Images** %3, align 4, !dbg !1550
  ret %class.Images* %24, !dbg !1550
}

; Function Attrs: nounwind
define linkonce_odr void @_ZN9__gnu_cxx13new_allocatorI6ImagesE9constructEPS1_RKS1_(%"class.__gnu_cxx::new_allocator"* %this, %class.Images* %__p, %class.Images* dereferenceable(16) %__val) #6 align 2 {
  %1 = alloca %"class.__gnu_cxx::new_allocator"*, align 4
  %2 = alloca %class.Images*, align 4
  %3 = alloca %class.Images*, align 4
  store %"class.__gnu_cxx::new_allocator"* %this, %"class.__gnu_cxx::new_allocator"** %1, align 4
  call void @llvm.dbg.declare(metadata !{%"class.__gnu_cxx::new_allocator"** %1}, metadata !1551), !dbg !1552
  store %class.Images* %__p, %class.Images** %2, align 4
  call void @llvm.dbg.declare(metadata !{%class.Images** %2}, metadata !1553), !dbg !1554
  store %class.Images* %__val, %class.Images** %3, align 4
  call void @llvm.dbg.declare(metadata !{%class.Images** %3}, metadata !1555), !dbg !1556
  %4 = load %"class.__gnu_cxx::new_allocator"** %1
  %5 = load %class.Images** %2, align 4, !dbg !1557
  %6 = bitcast %class.Images* %5 to i8*, !dbg !1557
  %7 = icmp eq i8* %6, null, !dbg !1557
  br i1 %7, label %13, label %8, !dbg !1557

; <label>:8                                       ; preds = %0
  %9 = bitcast i8* %6 to %class.Images*, !dbg !1558
  %10 = load %class.Images** %3, align 4, !dbg !1558
  %11 = bitcast %class.Images* %9 to i8*, !dbg !1558
  %12 = bitcast %class.Images* %10 to i8*, !dbg !1558
  call void @llvm.memcpy.p0i8.p0i8.i32(i8* %11, i8* %12, i32 16, i32 4, i1 false), !dbg !1558
  br label %13, !dbg !1558

; <label>:13                                      ; preds = %8, %0
  %14 = phi %class.Images* [ %9, %8 ], [ null, %0 ], !dbg !1557
  ret void, !dbg !1560
}

define linkonce_odr %"struct.std::_Vector_base"* @_ZNSt12_Vector_baseI6ImagesSaIS0_EED2Ev(%"struct.std::_Vector_base"* returned %this) unnamed_addr #0 align 2 {
  %1 = alloca %"struct.std::_Vector_base"*, align 4
  %2 = alloca i8*
  %3 = alloca i32
  store %"struct.std::_Vector_base"* %this, %"struct.std::_Vector_base"** %1, align 4
  call void @llvm.dbg.declare(metadata !{%"struct.std::_Vector_base"** %1}, metadata !1563), !dbg !1564
  %4 = load %"struct.std::_Vector_base"** %1
  %5 = getelementptr inbounds %"struct.std::_Vector_base"* %4, i32 0, i32 0, !dbg !1565
  %6 = getelementptr inbounds %"struct.std::_Vector_base<Images, std::allocator<Images> >::_Vector_impl"* %5, i32 0, i32 0, !dbg !1565
  %7 = load %class.Images** %6, align 4, !dbg !1565
  %8 = getelementptr inbounds %"struct.std::_Vector_base"* %4, i32 0, i32 0, !dbg !1565
  %9 = getelementptr inbounds %"struct.std::_Vector_base<Images, std::allocator<Images> >::_Vector_impl"* %8, i32 0, i32 2, !dbg !1565
  %10 = load %class.Images** %9, align 4, !dbg !1565
  %11 = getelementptr inbounds %"struct.std::_Vector_base"* %4, i32 0, i32 0, !dbg !1565
  %12 = getelementptr inbounds %"struct.std::_Vector_base<Images, std::allocator<Images> >::_Vector_impl"* %11, i32 0, i32 0, !dbg !1565
  %13 = load %class.Images** %12, align 4, !dbg !1565
  %14 = ptrtoint %class.Images* %10 to i32, !dbg !1565
  %15 = ptrtoint %class.Images* %13 to i32, !dbg !1565
  %16 = sub i32 %14, %15, !dbg !1565
  %17 = sdiv exact i32 %16, 16, !dbg !1565
  invoke void @_ZNSt12_Vector_baseI6ImagesSaIS0_EE13_M_deallocateEPS0_j(%"struct.std::_Vector_base"* %4, %class.Images* %7, i32 %17)
          to label %18 unwind label %21, !dbg !1565

; <label>:18                                      ; preds = %0
  %19 = getelementptr inbounds %"struct.std::_Vector_base"* %4, i32 0, i32 0, !dbg !1567
  %20 = call %"struct.std::_Vector_base<Images, std::allocator<Images> >::_Vector_impl"* @_ZNSt12_Vector_baseI6ImagesSaIS0_EE12_Vector_implD2Ev(%"struct.std::_Vector_base<Images, std::allocator<Images> >::_Vector_impl"* %19) #1, !dbg !1567
  ret %"struct.std::_Vector_base"* %4, !dbg !1568

; <label>:21                                      ; preds = %0
  %22 = landingpad { i8*, i32 } personality i8* bitcast (i32 (...)* @__gxx_personality_v0 to i8*)
          cleanup, !dbg !1567
  %23 = extractvalue { i8*, i32 } %22, 0, !dbg !1567
  store i8* %23, i8** %2, !dbg !1567
  %24 = extractvalue { i8*, i32 } %22, 1, !dbg !1567
  store i32 %24, i32* %3, !dbg !1567
  %25 = getelementptr inbounds %"struct.std::_Vector_base"* %4, i32 0, i32 0, !dbg !1568
  %26 = call %"struct.std::_Vector_base<Images, std::allocator<Images> >::_Vector_impl"* @_ZNSt12_Vector_baseI6ImagesSaIS0_EE12_Vector_implD2Ev(%"struct.std::_Vector_base<Images, std::allocator<Images> >::_Vector_impl"* %25) #1, !dbg !1568
  br label %27, !dbg !1568

; <label>:27                                      ; preds = %21
  %28 = load i8** %2, !dbg !1569
  %29 = load i32* %3, !dbg !1569
  %30 = insertvalue { i8*, i32 } undef, i8* %28, 0, !dbg !1569
  %31 = insertvalue { i8*, i32 } %30, i32 %29, 1, !dbg !1569
  resume { i8*, i32 } %31, !dbg !1569
}

; Function Attrs: inlinehint nounwind
define linkonce_odr %"struct.std::_Vector_base<Images, std::allocator<Images> >::_Vector_impl"* @_ZNSt12_Vector_baseI6ImagesSaIS0_EE12_Vector_implD2Ev(%"struct.std::_Vector_base<Images, std::allocator<Images> >::_Vector_impl"* returned %this) unnamed_addr #9 align 2 {
  %1 = alloca %"struct.std::_Vector_base<Images, std::allocator<Images> >::_Vector_impl"*, align 4
  store %"struct.std::_Vector_base<Images, std::allocator<Images> >::_Vector_impl"* %this, %"struct.std::_Vector_base<Images, std::allocator<Images> >::_Vector_impl"** %1, align 4
  call void @llvm.dbg.declare(metadata !{%"struct.std::_Vector_base<Images, std::allocator<Images> >::_Vector_impl"** %1}, metadata !1571), !dbg !1573
  %2 = load %"struct.std::_Vector_base<Images, std::allocator<Images> >::_Vector_impl"** %1
  %3 = bitcast %"struct.std::_Vector_base<Images, std::allocator<Images> >::_Vector_impl"* %2 to %"class.std::allocator"*, !dbg !1574
  %4 = call %"class.std::allocator"* @_ZNSaI6ImagesED2Ev(%"class.std::allocator"* %3) #1, !dbg !1574
  ret %"struct.std::_Vector_base<Images, std::allocator<Images> >::_Vector_impl"* %2, !dbg !1576
}

; Function Attrs: nounwind
define linkonce_odr %"class.std::allocator"* @_ZNSaI6ImagesED2Ev(%"class.std::allocator"* returned %this) unnamed_addr #6 align 2 {
  %1 = alloca %"class.std::allocator"*, align 4
  store %"class.std::allocator"* %this, %"class.std::allocator"** %1, align 4
  call void @llvm.dbg.declare(metadata !{%"class.std::allocator"** %1}, metadata !1577), !dbg !1579
  %2 = load %"class.std::allocator"** %1
  %3 = bitcast %"class.std::allocator"* %2 to %"class.__gnu_cxx::new_allocator"*, !dbg !1580
  %4 = call %"class.__gnu_cxx::new_allocator"* @_ZN9__gnu_cxx13new_allocatorI6ImagesED2Ev(%"class.__gnu_cxx::new_allocator"* %3) #1, !dbg !1580
  ret %"class.std::allocator"* %2, !dbg !1582
}

; Function Attrs: nounwind
define linkonce_odr %"class.__gnu_cxx::new_allocator"* @_ZN9__gnu_cxx13new_allocatorI6ImagesED2Ev(%"class.__gnu_cxx::new_allocator"* returned %this) unnamed_addr #6 align 2 {
  %1 = alloca %"class.__gnu_cxx::new_allocator"*, align 4
  store %"class.__gnu_cxx::new_allocator"* %this, %"class.__gnu_cxx::new_allocator"** %1, align 4
  call void @llvm.dbg.declare(metadata !{%"class.__gnu_cxx::new_allocator"** %1}, metadata !1583), !dbg !1584
  %2 = load %"class.__gnu_cxx::new_allocator"** %1
  ret %"class.__gnu_cxx::new_allocator"* %2, !dbg !1585
}

define linkonce_odr %"struct.std::_Vector_base"* @_ZNSt12_Vector_baseI6ImagesSaIS0_EEC2Ev(%"struct.std::_Vector_base"* returned %this) unnamed_addr #0 align 2 {
  %1 = alloca %"struct.std::_Vector_base"*, align 4
  store %"struct.std::_Vector_base"* %this, %"struct.std::_Vector_base"** %1, align 4
  call void @llvm.dbg.declare(metadata !{%"struct.std::_Vector_base"** %1}, metadata !1586), !dbg !1587
  %2 = load %"struct.std::_Vector_base"** %1
  %3 = getelementptr inbounds %"struct.std::_Vector_base"* %2, i32 0, i32 0, !dbg !1588
  %4 = call %"struct.std::_Vector_base<Images, std::allocator<Images> >::_Vector_impl"* @_ZNSt12_Vector_baseI6ImagesSaIS0_EE12_Vector_implC2Ev(%"struct.std::_Vector_base<Images, std::allocator<Images> >::_Vector_impl"* %3), !dbg !1588
  ret %"struct.std::_Vector_base"* %2, !dbg !1589
}

; Function Attrs: nounwind
define linkonce_odr %"struct.std::_Vector_base<Images, std::allocator<Images> >::_Vector_impl"* @_ZNSt12_Vector_baseI6ImagesSaIS0_EE12_Vector_implC2Ev(%"struct.std::_Vector_base<Images, std::allocator<Images> >::_Vector_impl"* returned %this) unnamed_addr #6 align 2 {
  %1 = alloca %"struct.std::_Vector_base<Images, std::allocator<Images> >::_Vector_impl"*, align 4
  store %"struct.std::_Vector_base<Images, std::allocator<Images> >::_Vector_impl"* %this, %"struct.std::_Vector_base<Images, std::allocator<Images> >::_Vector_impl"** %1, align 4
  call void @llvm.dbg.declare(metadata !{%"struct.std::_Vector_base<Images, std::allocator<Images> >::_Vector_impl"** %1}, metadata !1590), !dbg !1591
  %2 = load %"struct.std::_Vector_base<Images, std::allocator<Images> >::_Vector_impl"** %1
  %3 = bitcast %"struct.std::_Vector_base<Images, std::allocator<Images> >::_Vector_impl"* %2 to %"class.std::allocator"*, !dbg !1592
  %4 = call %"class.std::allocator"* @_ZNSaI6ImagesEC2Ev(%"class.std::allocator"* %3) #1, !dbg !1592
  %5 = getelementptr inbounds %"struct.std::_Vector_base<Images, std::allocator<Images> >::_Vector_impl"* %2, i32 0, i32 0, !dbg !1592
  store %class.Images* null, %class.Images** %5, align 4, !dbg !1592
  %6 = getelementptr inbounds %"struct.std::_Vector_base<Images, std::allocator<Images> >::_Vector_impl"* %2, i32 0, i32 1, !dbg !1592
  store %class.Images* null, %class.Images** %6, align 4, !dbg !1592
  %7 = getelementptr inbounds %"struct.std::_Vector_base<Images, std::allocator<Images> >::_Vector_impl"* %2, i32 0, i32 2, !dbg !1592
  store %class.Images* null, %class.Images** %7, align 4, !dbg !1592
  ret %"struct.std::_Vector_base<Images, std::allocator<Images> >::_Vector_impl"* %2, !dbg !1593
}

; Function Attrs: nounwind
define linkonce_odr %"class.std::allocator"* @_ZNSaI6ImagesEC2Ev(%"class.std::allocator"* returned %this) unnamed_addr #6 align 2 {
  %1 = alloca %"class.std::allocator"*, align 4
  store %"class.std::allocator"* %this, %"class.std::allocator"** %1, align 4
  call void @llvm.dbg.declare(metadata !{%"class.std::allocator"** %1}, metadata !1594), !dbg !1595
  %2 = load %"class.std::allocator"** %1
  %3 = bitcast %"class.std::allocator"* %2 to %"class.__gnu_cxx::new_allocator"*, !dbg !1596
  %4 = call %"class.__gnu_cxx::new_allocator"* @_ZN9__gnu_cxx13new_allocatorI6ImagesEC2Ev(%"class.__gnu_cxx::new_allocator"* %3) #1, !dbg !1596
  ret %"class.std::allocator"* %2, !dbg !1597
}

; Function Attrs: nounwind
define linkonce_odr %"class.__gnu_cxx::new_allocator"* @_ZN9__gnu_cxx13new_allocatorI6ImagesEC2Ev(%"class.__gnu_cxx::new_allocator"* returned %this) unnamed_addr #6 align 2 {
  %1 = alloca %"class.__gnu_cxx::new_allocator"*, align 4
  store %"class.__gnu_cxx::new_allocator"* %this, %"class.__gnu_cxx::new_allocator"** %1, align 4
  call void @llvm.dbg.declare(metadata !{%"class.__gnu_cxx::new_allocator"** %1}, metadata !1598), !dbg !1599
  %2 = load %"class.__gnu_cxx::new_allocator"** %1
  ret %"class.__gnu_cxx::new_allocator"* %2, !dbg !1600
}

define internal void @_GLOBAL__sub_I_test.cpp() section ".text.startup" {
  call void @__cxx_global_var_init(), !dbg !1601
  ret void, !dbg !1601
}

attributes #0 = { "less-precise-fpmad"="false" "no-frame-pointer-elim"="true" "no-frame-pointer-elim-non-leaf" "no-infs-fp-math"="false" "no-nans-fp-math"="false" "stack-protector-buffer-size"="8" "unsafe-fp-math"="false" "use-soft-float"="false" }
attributes #1 = { nounwind }
attributes #2 = { nounwind readnone }
attributes #3 = { noreturn nounwind "less-precise-fpmad"="false" "no-frame-pointer-elim"="true" "no-frame-pointer-elim-non-leaf" "no-infs-fp-math"="false" "no-nans-fp-math"="false" "stack-protector-buffer-size"="8" "unsafe-fp-math"="false" "use-soft-float"="false" }
attributes #4 = { nobuiltin "less-precise-fpmad"="false" "no-frame-pointer-elim"="true" "no-frame-pointer-elim-non-leaf" "no-infs-fp-math"="false" "no-nans-fp-math"="false" "stack-protector-buffer-size"="8" "unsafe-fp-math"="false" "use-soft-float"="false" }
attributes #5 = { noinline noreturn nounwind }
attributes #6 = { nounwind "less-precise-fpmad"="false" "no-frame-pointer-elim"="true" "no-frame-pointer-elim-non-leaf" "no-infs-fp-math"="false" "no-nans-fp-math"="false" "stack-protector-buffer-size"="8" "unsafe-fp-math"="false" "use-soft-float"="false" }
attributes #7 = { inlinehint "less-precise-fpmad"="false" "no-frame-pointer-elim"="true" "no-frame-pointer-elim-non-leaf" "no-infs-fp-math"="false" "no-nans-fp-math"="false" "stack-protector-buffer-size"="8" "unsafe-fp-math"="false" "use-soft-float"="false" }
attributes #8 = { nobuiltin nounwind "less-precise-fpmad"="false" "no-frame-pointer-elim"="true" "no-frame-pointer-elim-non-leaf" "no-infs-fp-math"="false" "no-nans-fp-math"="false" "stack-protector-buffer-size"="8" "unsafe-fp-math"="false" "use-soft-float"="false" }
attributes #9 = { inlinehint nounwind "less-precise-fpmad"="false" "no-frame-pointer-elim"="true" "no-frame-pointer-elim-non-leaf" "no-infs-fp-math"="false" "no-nans-fp-math"="false" "stack-protector-buffer-size"="8" "unsafe-fp-math"="false" "use-soft-float"="false" }
attributes #10 = { noreturn nounwind }
attributes #11 = { noreturn "less-precise-fpmad"="false" "no-frame-pointer-elim"="true" "no-frame-pointer-elim-non-leaf" "no-infs-fp-math"="false" "no-nans-fp-math"="false" "stack-protector-buffer-size"="8" "unsafe-fp-math"="false" "use-soft-float"="false" }
attributes #12 = { builtin }
attributes #13 = { noreturn }

!llvm.dbg.cu = !{!0}
!xidane.function_declaration_type = !{!709, !710, !711, !710, !712, !713, !714, !710, !715, !716, !717, !718, !719, !720, !721, !722, !723, !724, !725, !726, !727, !710, !728, !710, !729, !730, !731, !732, !733, !710, !734, !735, !736, !737, !738, !739, !740, !741, !742, !743, !744, !745, !746, !747, !748, !749, !750, !751, !752, !710, !753, !754, !755, !756, !757, !758, !759, !760, !759, !760, !761, !762, !763, !764, !765, !766, !767, !768, !769, !770, !771, !758, !772, !773, !774, !775, !776, !777, !778, !779, !780, !781, !782, !783, !784, !785, !786, !787, !788, !789, !790, !791, !792, !791, !793, !794, !795, !796, !797, !762, !798, !762, !799, !800, !801, !802, !803, !804, !805, !806, !807, !808, !809, !710, !810, !726, !811, !808, !812, !808, !813, !814, !815, !816, !817, !818, !819, !820, !821, !762, !822, !823, !824, !825, !826, !762, !827, !828, !829, !762, !830, !831, !752, !710, !832, !710, !833, !710, !833, !710, !834, !710, !835, !710, !733, !710, !836, !710, !837, !710, !837, !710, !838, !710, !839, !710, !734, !735}
!xidane.function_declaration_filename = !{!709, !840, !711, !840, !712, !841, !714, !842, !715, !842, !717, !842, !719, !843, !721, !844, !723, !845, !727, !842, !728, !842, !729, !841, !731, !846, !733, !847, !734, !848, !736, !847, !738, !849, !740, !847, !742, !850, !744, !850, !746, !850, !748, !850, !750, !850, !752, !847, !753, !851, !755, !847, !757, !847, !759, !852, !759, !852, !761, !853, !763, !852, !765, !852, !767, !847, !769, !852, !771, !847, !772, !847, !774, !854, !776, !847, !778, !851, !780, !855, !782, !847, !784, !851, !786, !856, !790, !855, !792, !855, !793, !856, !795, !854, !797, !854, !798, !854, !799, !855, !801, !857, !803, !851, !805, !856, !807, !856, !809, !858, !811, !847, !812, !847, !813, !858, !815, !853, !817, !851, !819, !847, !821, !853, !822, !853, !824, !859, !826, !853, !827, !853, !829, !853, !830, !856, !752, !847, !832, !847, !833, !847, !833, !847, !834, !860, !835, !856, !733, !847, !836, !847, !837, !847, !837, !847, !838, !860, !839, !856, !734, !848}
!xidane.ExternC = !{!719, !721}
!llvm.module.flags = !{!861, !862, !863, !864}
!llvm.ident = !{!865}

!0 = metadata !{i32 786449, metadata !1, i32 4, metadata !"clang version 3.5.0 (tags/RELEASE_350/final)", i1 false, metadata !"", i32 0, metadata !2, metadata !15, metadata !542, metadata !666, metadata !673, metadata !"", i32 1} ; [ DW_TAG_compile_unit ] [/home/student/sbm99/hldda_project/code/gatesrec_hw3//home/student/sbm99/hldda_project/code/gatesrec_hw3/test.cpp] [DW_LANG_C_plus_plus]
!1 = metadata !{metadata !"/home/student/sbm99/hldda_project/code/gatesrec_hw3/test.cpp", metadata !"/home/student/sbm99/hldda_project/code/gatesrec_hw3"}
!2 = metadata !{metadata !3}
!3 = metadata !{i32 786436, metadata !4, metadata !5, metadata !"_Ios_Openmode", i32 103, i64 32, i64 32, i32 0, i32 0, null, metadata !7, i32 0, null, null, metadata !"_ZTSSt13_Ios_Openmode"} ; [ DW_TAG_enumeration_type ] [_Ios_Openmode] [line 103, size 32, align 32, offset 0] [def] [from ]
!4 = metadata !{metadata !"/work/zhang/common/tools/xilinx/SDSoC/2015.2.1/SDK/2015.2/gnu/arm/lin/arm-xilinx-linux-gnueabi/include/c++/4.9.1/bits/ios_base.h", metadata !"/home/student/sbm99/hldda_project/code/gatesrec_hw3"}
!5 = metadata !{i32 786489, metadata !6, null, metadata !"std", i32 186} ; [ DW_TAG_namespace ] [std] [line 186]
!6 = metadata !{metadata !"/work/zhang/common/tools/xilinx/SDSoC/2015.2.1/SDK/2015.2/gnu/arm/lin/arm-xilinx-linux-gnueabi/include/c++/4.9.1/arm-xilinx-linux-gnueabi/bits/c++config.h", metadata !"/home/student/sbm99/hldda_project/code/gatesrec_hw3"}
!7 = metadata !{metadata !8, metadata !9, metadata !10, metadata !11, metadata !12, metadata !13, metadata !14}
!8 = metadata !{i32 786472, metadata !"_S_app", i64 1} ; [ DW_TAG_enumerator ] [_S_app :: 1]
!9 = metadata !{i32 786472, metadata !"_S_ate", i64 2} ; [ DW_TAG_enumerator ] [_S_ate :: 2]
!10 = metadata !{i32 786472, metadata !"_S_bin", i64 4} ; [ DW_TAG_enumerator ] [_S_bin :: 4]
!11 = metadata !{i32 786472, metadata !"_S_in", i64 8} ; [ DW_TAG_enumerator ] [_S_in :: 8]
!12 = metadata !{i32 786472, metadata !"_S_out", i64 16} ; [ DW_TAG_enumerator ] [_S_out :: 16]
!13 = metadata !{i32 786472, metadata !"_S_trunc", i64 32} ; [ DW_TAG_enumerator ] [_S_trunc :: 32]
!14 = metadata !{i32 786472, metadata !"_S_ios_openmode_end", i64 65536} ; [ DW_TAG_enumerator ] [_S_ios_openmode_end :: 65536]
!15 = metadata !{metadata !16, metadata !22, metadata !24, metadata !25, metadata !37, metadata !46, metadata !100, metadata !102, metadata !104, metadata !108, metadata !112, metadata !113, metadata !3, metadata !115, metadata !269, metadata !303, metadata !317, metadata !361, metadata !405, metadata !422, metadata !426, metadata !450, metadata !451, metadata !506, metadata !507, metadata !508, metadata !509, metadata !511, metadata !515, metadata !519, metadata !527, metadata !532, metadata !535, metadata !538, metadata !541}
!16 = metadata !{i32 786451, metadata !17, null, metadata !"", i32 82, i64 64, i64 32, i32 0, i32 0, null, metadata !18, i32 0, null, null, metadata !"_ZTS11__mbstate_t"} ; [ DW_TAG_structure_type ] [line 82, size 64, align 32, offset 0] [def] [from ]
!17 = metadata !{metadata !"/work/zhang/common/tools/xilinx/SDSoC/2015.2.1/SDK/2015.2/gnu/arm/lin/arm-xilinx-linux-gnueabi/libc/usr/include/wchar.h", metadata !"/home/student/sbm99/hldda_project/code/gatesrec_hw3"}
!18 = metadata !{metadata !19, metadata !21}
!19 = metadata !{i32 786445, metadata !17, metadata !"_ZTS11__mbstate_t", metadata !"__count", i32 84, i64 32, i64 32, i64 0, i32 0, metadata !20} ; [ DW_TAG_member ] [__count] [line 84, size 32, align 32, offset 0] [from int]
!20 = metadata !{i32 786468, null, null, metadata !"int", i32 0, i64 32, i64 32, i64 0, i32 0, i32 5} ; [ DW_TAG_base_type ] [int] [line 0, size 32, align 32, offset 0, enc DW_ATE_signed]
!21 = metadata !{i32 786445, metadata !17, metadata !"_ZTS11__mbstate_t", metadata !"__value", i32 93, i64 32, i64 32, i64 32, i32 0, metadata !"_ZTSN11__mbstate_tUt_E"} ; [ DW_TAG_member ] [__value] [line 93, size 32, align 32, offset 32] [from _ZTSN11__mbstate_tUt_E]
!22 = metadata !{i32 786451, metadata !23, null, metadata !"lconv", i32 53, i64 0, i64 0, i32 0, i32 4, null, null, i32 0, null, null, metadata !"_ZTS5lconv"} ; [ DW_TAG_structure_type ] [lconv] [line 53, size 0, align 0, offset 0] [decl] [from ]
!23 = metadata !{metadata !"/work/zhang/common/tools/xilinx/SDSoC/2015.2.1/SDK/2015.2/gnu/arm/lin/arm-xilinx-linux-gnueabi/libc/usr/include/locale.h", metadata !"/home/student/sbm99/hldda_project/code/gatesrec_hw3"}
!24 = metadata !{i32 786434, metadata !4, metadata !5, metadata !"ios_base", i32 199, i64 0, i64 0, i32 0, i32 4, null, null, i32 0, null, null, metadata !"_ZTSSt8ios_base"} ; [ DW_TAG_class_type ] [ios_base] [line 199, size 0, align 0, offset 0] [decl] [from ]
!25 = metadata !{i32 786434, metadata !4, metadata !"_ZTSSt8ios_base", metadata !"Init", i32 533, i64 8, i64 8, i32 0, i32 0, null, metadata !26, i32 0, null, null, metadata !"_ZTSNSt8ios_base4InitE"} ; [ DW_TAG_class_type ] [Init] [line 533, size 8, align 8, offset 0] [def] [from ]
!26 = metadata !{metadata !27, metadata !30, metadata !32, metadata !36}
!27 = metadata !{i32 786445, metadata !4, metadata !"_ZTSNSt8ios_base4InitE", metadata !"_S_refcount", i32 541, i64 0, i64 0, i64 0, i32 4097, metadata !28, null} ; [ DW_TAG_member ] [_S_refcount] [line 541, size 0, align 0, offset 0] [private] [static] [from _Atomic_word]
!28 = metadata !{i32 786454, metadata !29, null, metadata !"_Atomic_word", i32 32, i64 0, i64 0, i64 0, i32 0, metadata !20} ; [ DW_TAG_typedef ] [_Atomic_word] [line 32, size 0, align 0, offset 0] [from int]
!29 = metadata !{metadata !"/work/zhang/common/tools/xilinx/SDSoC/2015.2.1/SDK/2015.2/gnu/arm/lin/arm-xilinx-linux-gnueabi/include/c++/4.9.1/arm-xilinx-linux-gnueabi/bits/atomic_word.h", metadata !"/home/student/sbm99/hldda_project/code/gatesrec_hw3"}
!30 = metadata !{i32 786445, metadata !4, metadata !"_ZTSNSt8ios_base4InitE", metadata !"_S_synced_with_stdio", i32 542, i64 0, i64 0, i64 0, i32 4097, metadata !31, null} ; [ DW_TAG_member ] [_S_synced_with_stdio] [line 542, size 0, align 0, offset 0] [private] [static] [from bool]
!31 = metadata !{i32 786468, null, null, metadata !"bool", i32 0, i64 8, i64 8, i64 0, i32 0, i32 2} ; [ DW_TAG_base_type ] [bool] [line 0, size 8, align 8, offset 0, enc DW_ATE_boolean]
!32 = metadata !{i32 786478, metadata !4, metadata !"_ZTSNSt8ios_base4InitE", metadata !"Init", metadata !"Init", metadata !"", i32 537, metadata !33, i1 false, i1 false, i32 0, i32 0, null, i32 256, i1 false, null, null, i32 0, null, i32 537} ; [ DW_TAG_subprogram ] [line 537] [Init]
!33 = metadata !{i32 786453, i32 0, null, metadata !"", i32 0, i64 0, i64 0, i64 0, i32 0, null, metadata !34, i32 0, null, null, null} ; [ DW_TAG_subroutine_type ] [line 0, size 0, align 0, offset 0] [from ]
!34 = metadata !{null, metadata !35}
!35 = metadata !{i32 786447, null, null, metadata !"", i32 0, i64 32, i64 32, i64 0, i32 1088, metadata !"_ZTSNSt8ios_base4InitE"} ; [ DW_TAG_pointer_type ] [line 0, size 32, align 32, offset 0] [artificial] [from _ZTSNSt8ios_base4InitE]
!36 = metadata !{i32 786478, metadata !4, metadata !"_ZTSNSt8ios_base4InitE", metadata !"~Init", metadata !"~Init", metadata !"", i32 538, metadata !33, i1 false, i1 false, i32 0, i32 0, null, i32 256, i1 false, null, null, i32 0, null, i32 538} ; [ DW_TAG_subprogram ] [line 538] [~Init]
!37 = metadata !{i32 786455, metadata !17, metadata !"_ZTS11__mbstate_t", metadata !"", i32 85, i64 32, i64 32, i64 0, i32 0, null, metadata !38, i32 0, null, null, metadata !"_ZTSN11__mbstate_tUt_E"} ; [ DW_TAG_union_type ] [line 85, size 32, align 32, offset 0] [def] [from ]
!38 = metadata !{metadata !39, metadata !41}
!39 = metadata !{i32 786445, metadata !17, metadata !"_ZTSN11__mbstate_tUt_E", metadata !"__wch", i32 88, i64 32, i64 32, i64 0, i32 0, metadata !40} ; [ DW_TAG_member ] [__wch] [line 88, size 32, align 32, offset 0] [from unsigned int]
!40 = metadata !{i32 786468, null, null, metadata !"unsigned int", i32 0, i64 32, i64 32, i64 0, i32 0, i32 7} ; [ DW_TAG_base_type ] [unsigned int] [line 0, size 32, align 32, offset 0, enc DW_ATE_unsigned]
!41 = metadata !{i32 786445, metadata !17, metadata !"_ZTSN11__mbstate_tUt_E", metadata !"__wchb", i32 92, i64 32, i64 8, i64 0, i32 0, metadata !42} ; [ DW_TAG_member ] [__wchb] [line 92, size 32, align 8, offset 0] [from ]
!42 = metadata !{i32 786433, null, null, metadata !"", i32 0, i64 32, i64 8, i32 0, i32 0, metadata !43, metadata !44, i32 0, null, null, null} ; [ DW_TAG_array_type ] [line 0, size 32, align 8, offset 0] [from char]
!43 = metadata !{i32 786468, null, null, metadata !"char", i32 0, i64 8, i64 8, i64 0, i32 0, i32 8} ; [ DW_TAG_base_type ] [char] [line 0, size 8, align 8, offset 0, enc DW_ATE_unsigned_char]
!44 = metadata !{metadata !45}
!45 = metadata !{i32 786465, i64 0, i64 4}        ; [ DW_TAG_subrange_type ] [0, 3]
!46 = metadata !{i32 786451, metadata !47, null, metadata !"_IO_FILE", i32 245, i64 1216, i64 64, i32 0, i32 0, null, metadata !48, i32 0, null, null, metadata !"_ZTS8_IO_FILE"} ; [ DW_TAG_structure_type ] [_IO_FILE] [line 245, size 1216, align 64, offset 0] [def] [from ]
!47 = metadata !{metadata !"/work/zhang/common/tools/xilinx/SDSoC/2015.2.1/SDK/2015.2/gnu/arm/lin/arm-xilinx-linux-gnueabi/libc/usr/include/libio.h", metadata !"/home/student/sbm99/hldda_project/code/gatesrec_hw3"}
!48 = metadata !{metadata !49, metadata !50, metadata !52, metadata !53, metadata !54, metadata !55, metadata !56, metadata !57, metadata !58, metadata !59, metadata !60, metadata !61, metadata !62, metadata !64, metadata !66, metadata !67, metadata !68, metadata !72, metadata !74, metadata !76, metadata !80, metadata !83, metadata !87, metadata !89, metadata !90, metadata !91, metadata !92, metadata !95, metadata !96}
!49 = metadata !{i32 786445, metadata !47, metadata !"_ZTS8_IO_FILE", metadata !"_flags", i32 246, i64 32, i64 32, i64 0, i32 0, metadata !20} ; [ DW_TAG_member ] [_flags] [line 246, size 32, align 32, offset 0] [from int]
!50 = metadata !{i32 786445, metadata !47, metadata !"_ZTS8_IO_FILE", metadata !"_IO_read_ptr", i32 251, i64 32, i64 32, i64 32, i32 0, metadata !51} ; [ DW_TAG_member ] [_IO_read_ptr] [line 251, size 32, align 32, offset 32] [from ]
!51 = metadata !{i32 786447, null, null, metadata !"", i32 0, i64 32, i64 32, i64 0, i32 0, metadata !43} ; [ DW_TAG_pointer_type ] [line 0, size 32, align 32, offset 0] [from char]
!52 = metadata !{i32 786445, metadata !47, metadata !"_ZTS8_IO_FILE", metadata !"_IO_read_end", i32 252, i64 32, i64 32, i64 64, i32 0, metadata !51} ; [ DW_TAG_member ] [_IO_read_end] [line 252, size 32, align 32, offset 64] [from ]
!53 = metadata !{i32 786445, metadata !47, metadata !"_ZTS8_IO_FILE", metadata !"_IO_read_base", i32 253, i64 32, i64 32, i64 96, i32 0, metadata !51} ; [ DW_TAG_member ] [_IO_read_base] [line 253, size 32, align 32, offset 96] [from ]
!54 = metadata !{i32 786445, metadata !47, metadata !"_ZTS8_IO_FILE", metadata !"_IO_write_base", i32 254, i64 32, i64 32, i64 128, i32 0, metadata !51} ; [ DW_TAG_member ] [_IO_write_base] [line 254, size 32, align 32, offset 128] [from ]
!55 = metadata !{i32 786445, metadata !47, metadata !"_ZTS8_IO_FILE", metadata !"_IO_write_ptr", i32 255, i64 32, i64 32, i64 160, i32 0, metadata !51} ; [ DW_TAG_member ] [_IO_write_ptr] [line 255, size 32, align 32, offset 160] [from ]
!56 = metadata !{i32 786445, metadata !47, metadata !"_ZTS8_IO_FILE", metadata !"_IO_write_end", i32 256, i64 32, i64 32, i64 192, i32 0, metadata !51} ; [ DW_TAG_member ] [_IO_write_end] [line 256, size 32, align 32, offset 192] [from ]
!57 = metadata !{i32 786445, metadata !47, metadata !"_ZTS8_IO_FILE", metadata !"_IO_buf_base", i32 257, i64 32, i64 32, i64 224, i32 0, metadata !51} ; [ DW_TAG_member ] [_IO_buf_base] [line 257, size 32, align 32, offset 224] [from ]
!58 = metadata !{i32 786445, metadata !47, metadata !"_ZTS8_IO_FILE", metadata !"_IO_buf_end", i32 258, i64 32, i64 32, i64 256, i32 0, metadata !51} ; [ DW_TAG_member ] [_IO_buf_end] [line 258, size 32, align 32, offset 256] [from ]
!59 = metadata !{i32 786445, metadata !47, metadata !"_ZTS8_IO_FILE", metadata !"_IO_save_base", i32 260, i64 32, i64 32, i64 288, i32 0, metadata !51} ; [ DW_TAG_member ] [_IO_save_base] [line 260, size 32, align 32, offset 288] [from ]
!60 = metadata !{i32 786445, metadata !47, metadata !"_ZTS8_IO_FILE", metadata !"_IO_backup_base", i32 261, i64 32, i64 32, i64 320, i32 0, metadata !51} ; [ DW_TAG_member ] [_IO_backup_base] [line 261, size 32, align 32, offset 320] [from ]
!61 = metadata !{i32 786445, metadata !47, metadata !"_ZTS8_IO_FILE", metadata !"_IO_save_end", i32 262, i64 32, i64 32, i64 352, i32 0, metadata !51} ; [ DW_TAG_member ] [_IO_save_end] [line 262, size 32, align 32, offset 352] [from ]
!62 = metadata !{i32 786445, metadata !47, metadata !"_ZTS8_IO_FILE", metadata !"_markers", i32 264, i64 32, i64 32, i64 384, i32 0, metadata !63} ; [ DW_TAG_member ] [_markers] [line 264, size 32, align 32, offset 384] [from ]
!63 = metadata !{i32 786447, null, null, metadata !"", i32 0, i64 32, i64 32, i64 0, i32 0, metadata !"_ZTS10_IO_marker"} ; [ DW_TAG_pointer_type ] [line 0, size 32, align 32, offset 0] [from _ZTS10_IO_marker]
!64 = metadata !{i32 786445, metadata !47, metadata !"_ZTS8_IO_FILE", metadata !"_chain", i32 266, i64 32, i64 32, i64 416, i32 0, metadata !65} ; [ DW_TAG_member ] [_chain] [line 266, size 32, align 32, offset 416] [from ]
!65 = metadata !{i32 786447, null, null, metadata !"", i32 0, i64 32, i64 32, i64 0, i32 0, metadata !"_ZTS8_IO_FILE"} ; [ DW_TAG_pointer_type ] [line 0, size 32, align 32, offset 0] [from _ZTS8_IO_FILE]
!66 = metadata !{i32 786445, metadata !47, metadata !"_ZTS8_IO_FILE", metadata !"_fileno", i32 268, i64 32, i64 32, i64 448, i32 0, metadata !20} ; [ DW_TAG_member ] [_fileno] [line 268, size 32, align 32, offset 448] [from int]
!67 = metadata !{i32 786445, metadata !47, metadata !"_ZTS8_IO_FILE", metadata !"_flags2", i32 272, i64 32, i64 32, i64 480, i32 0, metadata !20} ; [ DW_TAG_member ] [_flags2] [line 272, size 32, align 32, offset 480] [from int]
!68 = metadata !{i32 786445, metadata !47, metadata !"_ZTS8_IO_FILE", metadata !"_old_offset", i32 274, i64 32, i64 32, i64 512, i32 0, metadata !69} ; [ DW_TAG_member ] [_old_offset] [line 274, size 32, align 32, offset 512] [from __off_t]
!69 = metadata !{i32 786454, metadata !70, null, metadata !"__off_t", i32 131, i64 0, i64 0, i64 0, i32 0, metadata !71} ; [ DW_TAG_typedef ] [__off_t] [line 131, size 0, align 0, offset 0] [from long int]
!70 = metadata !{metadata !"/work/zhang/common/tools/xilinx/SDSoC/2015.2.1/SDK/2015.2/gnu/arm/lin/arm-xilinx-linux-gnueabi/libc/usr/include/bits/types.h", metadata !"/home/student/sbm99/hldda_project/code/gatesrec_hw3"}
!71 = metadata !{i32 786468, null, null, metadata !"long int", i32 0, i64 32, i64 32, i64 0, i32 0, i32 5} ; [ DW_TAG_base_type ] [long int] [line 0, size 32, align 32, offset 0, enc DW_ATE_signed]
!72 = metadata !{i32 786445, metadata !47, metadata !"_ZTS8_IO_FILE", metadata !"_cur_column", i32 278, i64 16, i64 16, i64 544, i32 0, metadata !73} ; [ DW_TAG_member ] [_cur_column] [line 278, size 16, align 16, offset 544] [from unsigned short]
!73 = metadata !{i32 786468, null, null, metadata !"unsigned short", i32 0, i64 16, i64 16, i64 0, i32 0, i32 7} ; [ DW_TAG_base_type ] [unsigned short] [line 0, size 16, align 16, offset 0, enc DW_ATE_unsigned]
!74 = metadata !{i32 786445, metadata !47, metadata !"_ZTS8_IO_FILE", metadata !"_vtable_offset", i32 279, i64 8, i64 8, i64 560, i32 0, metadata !75} ; [ DW_TAG_member ] [_vtable_offset] [line 279, size 8, align 8, offset 560] [from signed char]
!75 = metadata !{i32 786468, null, null, metadata !"signed char", i32 0, i64 8, i64 8, i64 0, i32 0, i32 6} ; [ DW_TAG_base_type ] [signed char] [line 0, size 8, align 8, offset 0, enc DW_ATE_signed_char]
!76 = metadata !{i32 786445, metadata !47, metadata !"_ZTS8_IO_FILE", metadata !"_shortbuf", i32 280, i64 8, i64 8, i64 568, i32 0, metadata !77} ; [ DW_TAG_member ] [_shortbuf] [line 280, size 8, align 8, offset 568] [from ]
!77 = metadata !{i32 786433, null, null, metadata !"", i32 0, i64 8, i64 8, i32 0, i32 0, metadata !43, metadata !78, i32 0, null, null, null} ; [ DW_TAG_array_type ] [line 0, size 8, align 8, offset 0] [from char]
!78 = metadata !{metadata !79}
!79 = metadata !{i32 786465, i64 0, i64 1}        ; [ DW_TAG_subrange_type ] [0, 0]
!80 = metadata !{i32 786445, metadata !47, metadata !"_ZTS8_IO_FILE", metadata !"_lock", i32 284, i64 32, i64 32, i64 576, i32 0, metadata !81} ; [ DW_TAG_member ] [_lock] [line 284, size 32, align 32, offset 576] [from ]
!81 = metadata !{i32 786447, null, null, metadata !"", i32 0, i64 32, i64 32, i64 0, i32 0, metadata !82} ; [ DW_TAG_pointer_type ] [line 0, size 32, align 32, offset 0] [from _IO_lock_t]
!82 = metadata !{i32 786454, metadata !47, null, metadata !"_IO_lock_t", i32 154, i64 0, i64 0, i64 0, i32 0, null} ; [ DW_TAG_typedef ] [_IO_lock_t] [line 154, size 0, align 0, offset 0] [from ]
!83 = metadata !{i32 786445, metadata !47, metadata !"_ZTS8_IO_FILE", metadata !"_offset", i32 293, i64 64, i64 64, i64 640, i32 0, metadata !84} ; [ DW_TAG_member ] [_offset] [line 293, size 64, align 64, offset 640] [from __off64_t]
!84 = metadata !{i32 786454, metadata !70, null, metadata !"__off64_t", i32 132, i64 0, i64 0, i64 0, i32 0, metadata !85} ; [ DW_TAG_typedef ] [__off64_t] [line 132, size 0, align 0, offset 0] [from __quad_t]
!85 = metadata !{i32 786454, metadata !70, null, metadata !"__quad_t", i32 55, i64 0, i64 0, i64 0, i32 0, metadata !86} ; [ DW_TAG_typedef ] [__quad_t] [line 55, size 0, align 0, offset 0] [from long long int]
!86 = metadata !{i32 786468, null, null, metadata !"long long int", i32 0, i64 64, i64 64, i64 0, i32 0, i32 5} ; [ DW_TAG_base_type ] [long long int] [line 0, size 64, align 64, offset 0, enc DW_ATE_signed]
!87 = metadata !{i32 786445, metadata !47, metadata !"_ZTS8_IO_FILE", metadata !"__pad1", i32 302, i64 32, i64 32, i64 704, i32 0, metadata !88} ; [ DW_TAG_member ] [__pad1] [line 302, size 32, align 32, offset 704] [from ]
!88 = metadata !{i32 786447, null, null, metadata !"", i32 0, i64 32, i64 32, i64 0, i32 0, null} ; [ DW_TAG_pointer_type ] [line 0, size 32, align 32, offset 0] [from ]
!89 = metadata !{i32 786445, metadata !47, metadata !"_ZTS8_IO_FILE", metadata !"__pad2", i32 303, i64 32, i64 32, i64 736, i32 0, metadata !88} ; [ DW_TAG_member ] [__pad2] [line 303, size 32, align 32, offset 736] [from ]
!90 = metadata !{i32 786445, metadata !47, metadata !"_ZTS8_IO_FILE", metadata !"__pad3", i32 304, i64 32, i64 32, i64 768, i32 0, metadata !88} ; [ DW_TAG_member ] [__pad3] [line 304, size 32, align 32, offset 768] [from ]
!91 = metadata !{i32 786445, metadata !47, metadata !"_ZTS8_IO_FILE", metadata !"__pad4", i32 305, i64 32, i64 32, i64 800, i32 0, metadata !88} ; [ DW_TAG_member ] [__pad4] [line 305, size 32, align 32, offset 800] [from ]
!92 = metadata !{i32 786445, metadata !47, metadata !"_ZTS8_IO_FILE", metadata !"__pad5", i32 306, i64 32, i64 32, i64 832, i32 0, metadata !93} ; [ DW_TAG_member ] [__pad5] [line 306, size 32, align 32, offset 832] [from size_t]
!93 = metadata !{i32 786454, metadata !94, null, metadata !"size_t", i32 212, i64 0, i64 0, i64 0, i32 0, metadata !40} ; [ DW_TAG_typedef ] [size_t] [line 212, size 0, align 0, offset 0] [from unsigned int]
!94 = metadata !{metadata !"/work/zhang/common/tools/xilinx/SDSoC/2015.2.1/SDK/2015.2/gnu/arm/lin/lib/gcc/arm-xilinx-linux-gnueabi/4.9.1/include/stddef.h", metadata !"/home/student/sbm99/hldda_project/code/gatesrec_hw3"}
!95 = metadata !{i32 786445, metadata !47, metadata !"_ZTS8_IO_FILE", metadata !"_mode", i32 308, i64 32, i64 32, i64 864, i32 0, metadata !20} ; [ DW_TAG_member ] [_mode] [line 308, size 32, align 32, offset 864] [from int]
!96 = metadata !{i32 786445, metadata !47, metadata !"_ZTS8_IO_FILE", metadata !"_unused2", i32 310, i64 320, i64 8, i64 896, i32 0, metadata !97} ; [ DW_TAG_member ] [_unused2] [line 310, size 320, align 8, offset 896] [from ]
!97 = metadata !{i32 786433, null, null, metadata !"", i32 0, i64 320, i64 8, i32 0, i32 0, metadata !43, metadata !98, i32 0, null, null, null} ; [ DW_TAG_array_type ] [line 0, size 320, align 8, offset 0] [from char]
!98 = metadata !{metadata !99}
!99 = metadata !{i32 786465, i64 0, i64 40}       ; [ DW_TAG_subrange_type ] [0, 39]
!100 = metadata !{i32 786451, metadata !101, null, metadata !"", i32 21, i64 0, i64 0, i32 0, i32 4, null, null, i32 0, null, null, metadata !"_ZTS9_G_fpos_t"} ; [ DW_TAG_structure_type ] [line 21, size 0, align 0, offset 0] [decl] [from ]
!101 = metadata !{metadata !"/work/zhang/common/tools/xilinx/SDSoC/2015.2.1/SDK/2015.2/gnu/arm/lin/arm-xilinx-linux-gnueabi/libc/usr/include/_G_config.h", metadata !"/home/student/sbm99/hldda_project/code/gatesrec_hw3"}
!102 = metadata !{i32 786451, metadata !103, null, metadata !"", i32 97, i64 0, i64 0, i32 0, i32 4, null, null, i32 0, null, null, metadata !"_ZTS5div_t"} ; [ DW_TAG_structure_type ] [line 97, size 0, align 0, offset 0] [decl] [from ]
!103 = metadata !{metadata !"/work/zhang/common/tools/xilinx/SDSoC/2015.2.1/SDK/2015.2/gnu/arm/lin/arm-xilinx-linux-gnueabi/libc/usr/include/stdlib.h", metadata !"/home/student/sbm99/hldda_project/code/gatesrec_hw3"}
!104 = metadata !{i32 786451, metadata !103, null, metadata !"", i32 105, i64 64, i64 32, i32 0, i32 0, null, metadata !105, i32 0, null, null, metadata !"_ZTS6ldiv_t"} ; [ DW_TAG_structure_type ] [line 105, size 64, align 32, offset 0] [def] [from ]
!105 = metadata !{metadata !106, metadata !107}
!106 = metadata !{i32 786445, metadata !103, metadata !"_ZTS6ldiv_t", metadata !"quot", i32 107, i64 32, i64 32, i64 0, i32 0, metadata !71} ; [ DW_TAG_member ] [quot] [line 107, size 32, align 32, offset 0] [from long int]
!107 = metadata !{i32 786445, metadata !103, metadata !"_ZTS6ldiv_t", metadata !"rem", i32 108, i64 32, i64 32, i64 32, i32 0, metadata !71} ; [ DW_TAG_member ] [rem] [line 108, size 32, align 32, offset 32] [from long int]
!108 = metadata !{i32 786451, metadata !103, null, metadata !"", i32 117, i64 128, i64 64, i32 0, i32 0, null, metadata !109, i32 0, null, null, metadata !"_ZTS7lldiv_t"} ; [ DW_TAG_structure_type ] [line 117, size 128, align 64, offset 0] [def] [from ]
!109 = metadata !{metadata !110, metadata !111}
!110 = metadata !{i32 786445, metadata !103, metadata !"_ZTS7lldiv_t", metadata !"quot", i32 119, i64 64, i64 64, i64 0, i32 0, metadata !86} ; [ DW_TAG_member ] [quot] [line 119, size 64, align 64, offset 0] [from long long int]
!111 = metadata !{i32 786445, metadata !103, metadata !"_ZTS7lldiv_t", metadata !"rem", i32 120, i64 64, i64 64, i64 64, i32 0, metadata !86} ; [ DW_TAG_member ] [rem] [line 120, size 64, align 64, offset 64] [from long long int]
!112 = metadata !{i32 786451, metadata !47, null, metadata !"_IO_marker", i32 160, i64 0, i64 0, i32 0, i32 4, null, null, i32 0, null, null, metadata !"_ZTS10_IO_marker"} ; [ DW_TAG_structure_type ] [_IO_marker] [line 160, size 0, align 0, offset 0] [decl] [from ]
!113 = metadata !{i32 786434, metadata !114, metadata !5, metadata !"basic_fstream<char, std::char_traits<char> >", i32 971, i64 0, i64 0, i32 0, i32 4, null, null, i32 0, null, null, metadata !"_ZTSSt13basic_fstreamIcSt11char_traitsIcEE"} ; [ DW_TAG_class_type ] [basic_fstream<char, std::char_traits<char> >] [line 971, size 0, align 0, offset 0] [decl] [from ]
!114 = metadata !{metadata !"/work/zhang/common/tools/xilinx/SDSoC/2015.2.1/SDK/2015.2/gnu/arm/lin/arm-xilinx-linux-gnueabi/include/c++/4.9.1/bits/fstream.tcc", metadata !"/home/student/sbm99/hldda_project/code/gatesrec_hw3"}
!115 = metadata !{i32 786434, metadata !116, metadata !5, metadata !"vector<Images, std::allocator<Images> >", i32 214, i64 96, i64 32, i32 0, i32 0, null, metadata !117, i32 0, null, metadata !266, metadata !"_ZTSSt6vectorI6ImagesSaIS0_EE"} ; [ DW_TAG_class_type ] [vector<Images, std::allocator<Images> >] [line 214, size 96, align 32, offset 0] [def] [from ]
!116 = metadata !{metadata !"/work/zhang/common/tools/xilinx/SDSoC/2015.2.1/SDK/2015.2/gnu/arm/lin/arm-xilinx-linux-gnueabi/include/c++/4.9.1/bits/stl_vector.h", metadata !"/home/student/sbm99/hldda_project/code/gatesrec_hw3"}
!117 = metadata !{metadata !118, metadata !119, metadata !123, metadata !129, metadata !137, metadata !142, metadata !143, metadata !147, metadata !150, metadata !154, metadata !159, metadata !160, metadata !161, metadata !165, metadata !169, metadata !170, metadata !171, metadata !174, metadata !175, metadata !178, metadata !179, metadata !182, metadata !185, metadata !194, metadata !202, metadata !205, metadata !206, metadata !207, metadata !210, metadata !213, metadata !214, metadata !215, metadata !223, metadata !230, metadata !233, metadata !234, metadata !237, metadata !240, metadata !243, metadata !246, metadata !249, metadata !250, metadata !251, metadata !252, metadata !253, metadata !256, metadata !261, metadata !264, metadata !265}
!118 = metadata !{i32 786460, null, metadata !"_ZTSSt6vectorI6ImagesSaIS0_EE", null, i32 0, i64 0, i64 0, i64 0, i32 2, metadata !"_ZTSSt12_Vector_baseI6ImagesSaIS0_EE"} ; [ DW_TAG_inheritance ] [line 0, size 0, align 0, offset 0] [protected] [from _ZTSSt12_Vector_baseI6ImagesSaIS0_EE]
!119 = metadata !{i32 786478, metadata !116, metadata !"_ZTSSt6vectorI6ImagesSaIS0_EE", metadata !"vector", metadata !"vector", metadata !"", i32 253, metadata !120, i1 false, i1 false, i32 0, i32 0, null, i32 256, i1 false, null, null, i32 0, null, i32 253} ; [ DW_TAG_subprogram ] [line 253] [vector]
!120 = metadata !{i32 786453, i32 0, null, metadata !"", i32 0, i64 0, i64 0, i64 0, i32 0, null, metadata !121, i32 0, null, null, null} ; [ DW_TAG_subroutine_type ] [line 0, size 0, align 0, offset 0] [from ]
!121 = metadata !{null, metadata !122}
!122 = metadata !{i32 786447, null, null, metadata !"", i32 0, i64 32, i64 32, i64 0, i32 1088, metadata !"_ZTSSt6vectorI6ImagesSaIS0_EE"} ; [ DW_TAG_pointer_type ] [line 0, size 32, align 32, offset 0] [artificial] [from _ZTSSt6vectorI6ImagesSaIS0_EE]
!123 = metadata !{i32 786478, metadata !116, metadata !"_ZTSSt6vectorI6ImagesSaIS0_EE", metadata !"vector", metadata !"vector", metadata !"", i32 264, metadata !124, i1 false, i1 false, i32 0, i32 0, null, i32 384, i1 false, null, null, i32 0, null, i32 264} ; [ DW_TAG_subprogram ] [line 264] [vector]
!124 = metadata !{i32 786453, i32 0, null, metadata !"", i32 0, i64 0, i64 0, i64 0, i32 0, null, metadata !125, i32 0, null, null, null} ; [ DW_TAG_subroutine_type ] [line 0, size 0, align 0, offset 0] [from ]
!125 = metadata !{null, metadata !122, metadata !126}
!126 = metadata !{i32 786448, null, null, null, i32 0, i64 0, i64 0, i64 0, i32 0, metadata !127} ; [ DW_TAG_reference_type ] [line 0, size 0, align 0, offset 0] [from ]
!127 = metadata !{i32 786470, null, null, metadata !"", i32 0, i64 0, i64 0, i64 0, i32 0, metadata !128} ; [ DW_TAG_const_type ] [line 0, size 0, align 0, offset 0] [from allocator_type]
!128 = metadata !{i32 786454, metadata !116, metadata !"_ZTSSt6vectorI6ImagesSaIS0_EE", metadata !"allocator_type", i32 238, i64 0, i64 0, i64 0, i32 0, metadata !"_ZTSSaI6ImagesE"} ; [ DW_TAG_typedef ] [allocator_type] [line 238, size 0, align 0, offset 0] [from _ZTSSaI6ImagesE]
!129 = metadata !{i32 786478, metadata !116, metadata !"_ZTSSt6vectorI6ImagesSaIS0_EE", metadata !"vector", metadata !"vector", metadata !"", i32 303, metadata !130, i1 false, i1 false, i32 0, i32 0, null, i32 384, i1 false, null, null, i32 0, null, i32 303} ; [ DW_TAG_subprogram ] [line 303] [vector]
!130 = metadata !{i32 786453, i32 0, null, metadata !"", i32 0, i64 0, i64 0, i64 0, i32 0, null, metadata !131, i32 0, null, null, null} ; [ DW_TAG_subroutine_type ] [line 0, size 0, align 0, offset 0] [from ]
!131 = metadata !{null, metadata !122, metadata !132, metadata !134, metadata !126}
!132 = metadata !{i32 786454, metadata !116, null, metadata !"size_type", i32 236, i64 0, i64 0, i64 0, i32 0, metadata !133} ; [ DW_TAG_typedef ] [size_type] [line 236, size 0, align 0, offset 0] [from size_t]
!133 = metadata !{i32 786454, metadata !6, metadata !5, metadata !"size_t", i32 188, i64 0, i64 0, i64 0, i32 0, metadata !40} ; [ DW_TAG_typedef ] [size_t] [line 188, size 0, align 0, offset 0] [from unsigned int]
!134 = metadata !{i32 786448, null, null, null, i32 0, i64 0, i64 0, i64 0, i32 0, metadata !135} ; [ DW_TAG_reference_type ] [line 0, size 0, align 0, offset 0] [from ]
!135 = metadata !{i32 786470, null, null, metadata !"", i32 0, i64 0, i64 0, i64 0, i32 0, metadata !136} ; [ DW_TAG_const_type ] [line 0, size 0, align 0, offset 0] [from value_type]
!136 = metadata !{i32 786454, metadata !116, metadata !"_ZTSSt6vectorI6ImagesSaIS0_EE", metadata !"value_type", i32 226, i64 0, i64 0, i64 0, i32 0, metadata !"_ZTS6Images"} ; [ DW_TAG_typedef ] [value_type] [line 226, size 0, align 0, offset 0] [from _ZTS6Images]
!137 = metadata !{i32 786478, metadata !116, metadata !"_ZTSSt6vectorI6ImagesSaIS0_EE", metadata !"vector", metadata !"vector", metadata !"", i32 318, metadata !138, i1 false, i1 false, i32 0, i32 0, null, i32 256, i1 false, null, null, i32 0, null, i32 318} ; [ DW_TAG_subprogram ] [line 318] [vector]
!138 = metadata !{i32 786453, i32 0, null, metadata !"", i32 0, i64 0, i64 0, i64 0, i32 0, null, metadata !139, i32 0, null, null, null} ; [ DW_TAG_subroutine_type ] [line 0, size 0, align 0, offset 0] [from ]
!139 = metadata !{null, metadata !122, metadata !140}
!140 = metadata !{i32 786448, null, null, null, i32 0, i64 0, i64 0, i64 0, i32 0, metadata !141} ; [ DW_TAG_reference_type ] [line 0, size 0, align 0, offset 0] [from ]
!141 = metadata !{i32 786470, null, null, metadata !"", i32 0, i64 0, i64 0, i64 0, i32 0, metadata !"_ZTSSt6vectorI6ImagesSaIS0_EE"} ; [ DW_TAG_const_type ] [line 0, size 0, align 0, offset 0] [from _ZTSSt6vectorI6ImagesSaIS0_EE]
!142 = metadata !{i32 786478, metadata !116, metadata !"_ZTSSt6vectorI6ImagesSaIS0_EE", metadata !"~vector", metadata !"~vector", metadata !"", i32 423, metadata !120, i1 false, i1 false, i32 0, i32 0, null, i32 256, i1 false, null, null, i32 0, null, i32 423} ; [ DW_TAG_subprogram ] [line 423] [~vector]
!143 = metadata !{i32 786478, metadata !116, metadata !"_ZTSSt6vectorI6ImagesSaIS0_EE", metadata !"operator=", metadata !"operator=", metadata !"_ZNSt6vectorI6ImagesSaIS0_EEaSERKS2_", i32 436, metadata !144, i1 false, i1 false, i32 0, i32 0, null, i32 256, i1 false, null, null, i32 0, null, i32 436} ; [ DW_TAG_subprogram ] [line 436] [operator=]
!144 = metadata !{i32 786453, i32 0, null, metadata !"", i32 0, i64 0, i64 0, i64 0, i32 0, null, metadata !145, i32 0, null, null, null} ; [ DW_TAG_subroutine_type ] [line 0, size 0, align 0, offset 0] [from ]
!145 = metadata !{metadata !146, metadata !122, metadata !140}
!146 = metadata !{i32 786448, null, null, null, i32 0, i64 0, i64 0, i64 0, i32 0, metadata !"_ZTSSt6vectorI6ImagesSaIS0_EE"} ; [ DW_TAG_reference_type ] [line 0, size 0, align 0, offset 0] [from _ZTSSt6vectorI6ImagesSaIS0_EE]
!147 = metadata !{i32 786478, metadata !116, metadata !"_ZTSSt6vectorI6ImagesSaIS0_EE", metadata !"assign", metadata !"assign", metadata !"_ZNSt6vectorI6ImagesSaIS0_EE6assignEjRKS0_", i32 488, metadata !148, i1 false, i1 false, i32 0, i32 0, null, i32 256, i1 false, null, null, i32 0, null, i32 488} ; [ DW_TAG_subprogram ] [line 488] [assign]
!148 = metadata !{i32 786453, i32 0, null, metadata !"", i32 0, i64 0, i64 0, i64 0, i32 0, null, metadata !149, i32 0, null, null, null} ; [ DW_TAG_subroutine_type ] [line 0, size 0, align 0, offset 0] [from ]
!149 = metadata !{null, metadata !122, metadata !132, metadata !134}
!150 = metadata !{i32 786478, metadata !116, metadata !"_ZTSSt6vectorI6ImagesSaIS0_EE", metadata !"begin", metadata !"begin", metadata !"_ZNSt6vectorI6ImagesSaIS0_EE5beginEv", i32 547, metadata !151, i1 false, i1 false, i32 0, i32 0, null, i32 256, i1 false, null, null, i32 0, null, i32 547} ; [ DW_TAG_subprogram ] [line 547] [begin]
!151 = metadata !{i32 786453, i32 0, null, metadata !"", i32 0, i64 0, i64 0, i64 0, i32 0, null, metadata !152, i32 0, null, null, null} ; [ DW_TAG_subroutine_type ] [line 0, size 0, align 0, offset 0] [from ]
!152 = metadata !{metadata !153, metadata !122}
!153 = metadata !{i32 786454, metadata !116, metadata !"_ZTSSt6vectorI6ImagesSaIS0_EE", metadata !"iterator", i32 231, i64 0, i64 0, i64 0, i32 0, metadata !"_ZTSN9__gnu_cxx17__normal_iteratorIP6ImagesSt6vectorIS1_SaIS1_EEEE"} ; [ DW_TAG_typedef ] [iterator] [line 231, size 0, align 0, offset 0] [from _ZTSN9__gnu_cxx17__normal_iteratorIP6ImagesSt6vectorIS1_SaIS1_EEEE]
!154 = metadata !{i32 786478, metadata !116, metadata !"_ZTSSt6vectorI6ImagesSaIS0_EE", metadata !"begin", metadata !"begin", metadata !"_ZNKSt6vectorI6ImagesSaIS0_EE5beginEv", i32 556, metadata !155, i1 false, i1 false, i32 0, i32 0, null, i32 256, i1 false, null, null, i32 0, null, i32 556} ; [ DW_TAG_subprogram ] [line 556] [begin]
!155 = metadata !{i32 786453, i32 0, null, metadata !"", i32 0, i64 0, i64 0, i64 0, i32 0, null, metadata !156, i32 0, null, null, null} ; [ DW_TAG_subroutine_type ] [line 0, size 0, align 0, offset 0] [from ]
!156 = metadata !{metadata !157, metadata !158}
!157 = metadata !{i32 786454, metadata !116, metadata !"_ZTSSt6vectorI6ImagesSaIS0_EE", metadata !"const_iterator", i32 233, i64 0, i64 0, i64 0, i32 0, metadata !"_ZTSN9__gnu_cxx17__normal_iteratorIPK6ImagesSt6vectorIS1_SaIS1_EEEE"} ; [ DW_TAG_typedef ] [const_iterator] [line 233, size 0, align 0, offset 0] [from _ZTSN9__gnu_cxx17__normal_iteratorIPK6ImagesSt6vectorIS1_SaIS1_EEEE]
!158 = metadata !{i32 786447, null, null, metadata !"", i32 0, i64 32, i64 32, i64 0, i32 1088, metadata !141} ; [ DW_TAG_pointer_type ] [line 0, size 32, align 32, offset 0] [artificial] [from ]
!159 = metadata !{i32 786478, metadata !116, metadata !"_ZTSSt6vectorI6ImagesSaIS0_EE", metadata !"end", metadata !"end", metadata !"_ZNSt6vectorI6ImagesSaIS0_EE3endEv", i32 565, metadata !151, i1 false, i1 false, i32 0, i32 0, null, i32 256, i1 false, null, null, i32 0, null, i32 565} ; [ DW_TAG_subprogram ] [line 565] [end]
!160 = metadata !{i32 786478, metadata !116, metadata !"_ZTSSt6vectorI6ImagesSaIS0_EE", metadata !"end", metadata !"end", metadata !"_ZNKSt6vectorI6ImagesSaIS0_EE3endEv", i32 574, metadata !155, i1 false, i1 false, i32 0, i32 0, null, i32 256, i1 false, null, null, i32 0, null, i32 574} ; [ DW_TAG_subprogram ] [line 574] [end]
!161 = metadata !{i32 786478, metadata !116, metadata !"_ZTSSt6vectorI6ImagesSaIS0_EE", metadata !"rbegin", metadata !"rbegin", metadata !"_ZNSt6vectorI6ImagesSaIS0_EE6rbeginEv", i32 583, metadata !162, i1 false, i1 false, i32 0, i32 0, null, i32 256, i1 false, null, null, i32 0, null, i32 583} ; [ DW_TAG_subprogram ] [line 583] [rbegin]
!162 = metadata !{i32 786453, i32 0, null, metadata !"", i32 0, i64 0, i64 0, i64 0, i32 0, null, metadata !163, i32 0, null, null, null} ; [ DW_TAG_subroutine_type ] [line 0, size 0, align 0, offset 0] [from ]
!163 = metadata !{metadata !164, metadata !122}
!164 = metadata !{i32 786454, metadata !116, metadata !"_ZTSSt6vectorI6ImagesSaIS0_EE", metadata !"reverse_iterator", i32 235, i64 0, i64 0, i64 0, i32 0, metadata !"_ZTSSt16reverse_iteratorIN9__gnu_cxx17__normal_iteratorIP6ImagesSt6vectorIS2_SaIS2_EEEEE"} ; [ DW_TAG_typedef ] [reverse_iterator] [line 235, size 0, align 0, offset 0] [from _ZTSSt16reverse_iteratorIN9__gnu_cxx17__normal_iteratorIP6ImagesSt6vectorIS2_SaIS2_EEEEE]
!165 = metadata !{i32 786478, metadata !116, metadata !"_ZTSSt6vectorI6ImagesSaIS0_EE", metadata !"rbegin", metadata !"rbegin", metadata !"_ZNKSt6vectorI6ImagesSaIS0_EE6rbeginEv", i32 592, metadata !166, i1 false, i1 false, i32 0, i32 0, null, i32 256, i1 false, null, null, i32 0, null, i32 592} ; [ DW_TAG_subprogram ] [line 592] [rbegin]
!166 = metadata !{i32 786453, i32 0, null, metadata !"", i32 0, i64 0, i64 0, i64 0, i32 0, null, metadata !167, i32 0, null, null, null} ; [ DW_TAG_subroutine_type ] [line 0, size 0, align 0, offset 0] [from ]
!167 = metadata !{metadata !168, metadata !158}
!168 = metadata !{i32 786454, metadata !116, metadata !"_ZTSSt6vectorI6ImagesSaIS0_EE", metadata !"const_reverse_iterator", i32 234, i64 0, i64 0, i64 0, i32 0, metadata !"_ZTSSt16reverse_iteratorIN9__gnu_cxx17__normal_iteratorIPK6ImagesSt6vectorIS2_SaIS2_EEEEE"} ; [ DW_TAG_typedef ] [const_reverse_iterator] [line 234, size 0, align 0, offset 0] [from _ZTSSt16reverse_iteratorIN9__gnu_cxx17__normal_iteratorIPK6ImagesSt6vectorIS2_SaIS2_EEEEE]
!169 = metadata !{i32 786478, metadata !116, metadata !"_ZTSSt6vectorI6ImagesSaIS0_EE", metadata !"rend", metadata !"rend", metadata !"_ZNSt6vectorI6ImagesSaIS0_EE4rendEv", i32 601, metadata !162, i1 false, i1 false, i32 0, i32 0, null, i32 256, i1 false, null, null, i32 0, null, i32 601} ; [ DW_TAG_subprogram ] [line 601] [rend]
!170 = metadata !{i32 786478, metadata !116, metadata !"_ZTSSt6vectorI6ImagesSaIS0_EE", metadata !"rend", metadata !"rend", metadata !"_ZNKSt6vectorI6ImagesSaIS0_EE4rendEv", i32 610, metadata !166, i1 false, i1 false, i32 0, i32 0, null, i32 256, i1 false, null, null, i32 0, null, i32 610} ; [ DW_TAG_subprogram ] [line 610] [rend]
!171 = metadata !{i32 786478, metadata !116, metadata !"_ZTSSt6vectorI6ImagesSaIS0_EE", metadata !"size", metadata !"size", metadata !"_ZNKSt6vectorI6ImagesSaIS0_EE4sizeEv", i32 654, metadata !172, i1 false, i1 false, i32 0, i32 0, null, i32 256, i1 false, null, null, i32 0, null, i32 654} ; [ DW_TAG_subprogram ] [line 654] [size]
!172 = metadata !{i32 786453, i32 0, null, metadata !"", i32 0, i64 0, i64 0, i64 0, i32 0, null, metadata !173, i32 0, null, null, null} ; [ DW_TAG_subroutine_type ] [line 0, size 0, align 0, offset 0] [from ]
!173 = metadata !{metadata !132, metadata !158}
!174 = metadata !{i32 786478, metadata !116, metadata !"_ZTSSt6vectorI6ImagesSaIS0_EE", metadata !"max_size", metadata !"max_size", metadata !"_ZNKSt6vectorI6ImagesSaIS0_EE8max_sizeEv", i32 659, metadata !172, i1 false, i1 false, i32 0, i32 0, null, i32 256, i1 false, null, null, i32 0, null, i32 659} ; [ DW_TAG_subprogram ] [line 659] [max_size]
!175 = metadata !{i32 786478, metadata !116, metadata !"_ZTSSt6vectorI6ImagesSaIS0_EE", metadata !"resize", metadata !"resize", metadata !"_ZNSt6vectorI6ImagesSaIS0_EE6resizeEjS0_", i32 713, metadata !176, i1 false, i1 false, i32 0, i32 0, null, i32 256, i1 false, null, null, i32 0, null, i32 713} ; [ DW_TAG_subprogram ] [line 713] [resize]
!176 = metadata !{i32 786453, i32 0, null, metadata !"", i32 0, i64 0, i64 0, i64 0, i32 0, null, metadata !177, i32 0, null, null, null} ; [ DW_TAG_subroutine_type ] [line 0, size 0, align 0, offset 0] [from ]
!177 = metadata !{null, metadata !122, metadata !132, metadata !136}
!178 = metadata !{i32 786478, metadata !116, metadata !"_ZTSSt6vectorI6ImagesSaIS0_EE", metadata !"capacity", metadata !"capacity", metadata !"_ZNKSt6vectorI6ImagesSaIS0_EE8capacityEv", i32 734, metadata !172, i1 false, i1 false, i32 0, i32 0, null, i32 256, i1 false, null, null, i32 0, null, i32 734} ; [ DW_TAG_subprogram ] [line 734] [capacity]
!179 = metadata !{i32 786478, metadata !116, metadata !"_ZTSSt6vectorI6ImagesSaIS0_EE", metadata !"empty", metadata !"empty", metadata !"_ZNKSt6vectorI6ImagesSaIS0_EE5emptyEv", i32 743, metadata !180, i1 false, i1 false, i32 0, i32 0, null, i32 256, i1 false, null, null, i32 0, null, i32 743} ; [ DW_TAG_subprogram ] [line 743] [empty]
!180 = metadata !{i32 786453, i32 0, null, metadata !"", i32 0, i64 0, i64 0, i64 0, i32 0, null, metadata !181, i32 0, null, null, null} ; [ DW_TAG_subroutine_type ] [line 0, size 0, align 0, offset 0] [from ]
!181 = metadata !{metadata !31, metadata !158}
!182 = metadata !{i32 786478, metadata !116, metadata !"_ZTSSt6vectorI6ImagesSaIS0_EE", metadata !"reserve", metadata !"reserve", metadata !"_ZNSt6vectorI6ImagesSaIS0_EE7reserveEj", i32 764, metadata !183, i1 false, i1 false, i32 0, i32 0, null, i32 256, i1 false, null, null, i32 0, null, i32 764} ; [ DW_TAG_subprogram ] [line 764] [reserve]
!183 = metadata !{i32 786453, i32 0, null, metadata !"", i32 0, i64 0, i64 0, i64 0, i32 0, null, metadata !184, i32 0, null, null, null} ; [ DW_TAG_subroutine_type ] [line 0, size 0, align 0, offset 0] [from ]
!184 = metadata !{null, metadata !122, metadata !132}
!185 = metadata !{i32 786478, metadata !116, metadata !"_ZTSSt6vectorI6ImagesSaIS0_EE", metadata !"operator[]", metadata !"operator[]", metadata !"_ZNSt6vectorI6ImagesSaIS0_EEixEj", i32 779, metadata !186, i1 false, i1 false, i32 0, i32 0, null, i32 256, i1 false, null, null, i32 0, null, i32 779} ; [ DW_TAG_subprogram ] [line 779] [operator[]]
!186 = metadata !{i32 786453, i32 0, null, metadata !"", i32 0, i64 0, i64 0, i64 0, i32 0, null, metadata !187, i32 0, null, null, null} ; [ DW_TAG_subroutine_type ] [line 0, size 0, align 0, offset 0] [from ]
!187 = metadata !{metadata !188, metadata !122, metadata !132}
!188 = metadata !{i32 786454, metadata !116, metadata !"_ZTSSt6vectorI6ImagesSaIS0_EE", metadata !"reference", i32 229, i64 0, i64 0, i64 0, i32 0, metadata !189} ; [ DW_TAG_typedef ] [reference] [line 229, size 0, align 0, offset 0] [from reference]
!189 = metadata !{i32 786454, metadata !190, metadata !"_ZTSN9__gnu_cxx14__alloc_traitsISaI6ImagesEEE", metadata !"reference", i32 175, i64 0, i64 0, i64 0, i32 0, metadata !191} ; [ DW_TAG_typedef ] [reference] [line 175, size 0, align 0, offset 0] [from reference]
!190 = metadata !{metadata !"/work/zhang/common/tools/xilinx/SDSoC/2015.2.1/SDK/2015.2/gnu/arm/lin/arm-xilinx-linux-gnueabi/include/c++/4.9.1/ext/alloc_traits.h", metadata !"/home/student/sbm99/hldda_project/code/gatesrec_hw3"}
!191 = metadata !{i32 786454, metadata !192, metadata !"_ZTSSaI6ImagesE", metadata !"reference", i32 99, i64 0, i64 0, i64 0, i32 0, metadata !193} ; [ DW_TAG_typedef ] [reference] [line 99, size 0, align 0, offset 0] [from ]
!192 = metadata !{metadata !"/work/zhang/common/tools/xilinx/SDSoC/2015.2.1/SDK/2015.2/gnu/arm/lin/arm-xilinx-linux-gnueabi/include/c++/4.9.1/bits/allocator.h", metadata !"/home/student/sbm99/hldda_project/code/gatesrec_hw3"}
!193 = metadata !{i32 786448, null, null, null, i32 0, i64 0, i64 0, i64 0, i32 0, metadata !"_ZTS6Images"} ; [ DW_TAG_reference_type ] [line 0, size 0, align 0, offset 0] [from _ZTS6Images]
!194 = metadata !{i32 786478, metadata !116, metadata !"_ZTSSt6vectorI6ImagesSaIS0_EE", metadata !"operator[]", metadata !"operator[]", metadata !"_ZNKSt6vectorI6ImagesSaIS0_EEixEj", i32 794, metadata !195, i1 false, i1 false, i32 0, i32 0, null, i32 256, i1 false, null, null, i32 0, null, i32 794} ; [ DW_TAG_subprogram ] [line 794] [operator[]]
!195 = metadata !{i32 786453, i32 0, null, metadata !"", i32 0, i64 0, i64 0, i64 0, i32 0, null, metadata !196, i32 0, null, null, null} ; [ DW_TAG_subroutine_type ] [line 0, size 0, align 0, offset 0] [from ]
!196 = metadata !{metadata !197, metadata !158, metadata !132}
!197 = metadata !{i32 786454, metadata !116, metadata !"_ZTSSt6vectorI6ImagesSaIS0_EE", metadata !"const_reference", i32 230, i64 0, i64 0, i64 0, i32 0, metadata !198} ; [ DW_TAG_typedef ] [const_reference] [line 230, size 0, align 0, offset 0] [from const_reference]
!198 = metadata !{i32 786454, metadata !190, metadata !"_ZTSN9__gnu_cxx14__alloc_traitsISaI6ImagesEEE", metadata !"const_reference", i32 176, i64 0, i64 0, i64 0, i32 0, metadata !199} ; [ DW_TAG_typedef ] [const_reference] [line 176, size 0, align 0, offset 0] [from const_reference]
!199 = metadata !{i32 786454, metadata !192, metadata !"_ZTSSaI6ImagesE", metadata !"const_reference", i32 100, i64 0, i64 0, i64 0, i32 0, metadata !200} ; [ DW_TAG_typedef ] [const_reference] [line 100, size 0, align 0, offset 0] [from ]
!200 = metadata !{i32 786448, null, null, null, i32 0, i64 0, i64 0, i64 0, i32 0, metadata !201} ; [ DW_TAG_reference_type ] [line 0, size 0, align 0, offset 0] [from ]
!201 = metadata !{i32 786470, null, null, metadata !"", i32 0, i64 0, i64 0, i64 0, i32 0, metadata !"_ZTS6Images"} ; [ DW_TAG_const_type ] [line 0, size 0, align 0, offset 0] [from _ZTS6Images]
!202 = metadata !{i32 786478, metadata !116, metadata !"_ZTSSt6vectorI6ImagesSaIS0_EE", metadata !"_M_range_check", metadata !"_M_range_check", metadata !"_ZNKSt6vectorI6ImagesSaIS0_EE14_M_range_checkEj", i32 800, metadata !203, i1 false, i1 false, i32 0, i32 0, null, i32 258, i1 false, null, null, i32 0, null, i32 800} ; [ DW_TAG_subprogram ] [line 800] [protected] [_M_range_check]
!203 = metadata !{i32 786453, i32 0, null, metadata !"", i32 0, i64 0, i64 0, i64 0, i32 0, null, metadata !204, i32 0, null, null, null} ; [ DW_TAG_subroutine_type ] [line 0, size 0, align 0, offset 0] [from ]
!204 = metadata !{null, metadata !158, metadata !132}
!205 = metadata !{i32 786478, metadata !116, metadata !"_ZTSSt6vectorI6ImagesSaIS0_EE", metadata !"at", metadata !"at", metadata !"_ZNSt6vectorI6ImagesSaIS0_EE2atEj", i32 822, metadata !186, i1 false, i1 false, i32 0, i32 0, null, i32 256, i1 false, null, null, i32 0, null, i32 822} ; [ DW_TAG_subprogram ] [line 822] [at]
!206 = metadata !{i32 786478, metadata !116, metadata !"_ZTSSt6vectorI6ImagesSaIS0_EE", metadata !"at", metadata !"at", metadata !"_ZNKSt6vectorI6ImagesSaIS0_EE2atEj", i32 840, metadata !195, i1 false, i1 false, i32 0, i32 0, null, i32 256, i1 false, null, null, i32 0, null, i32 840} ; [ DW_TAG_subprogram ] [line 840] [at]
!207 = metadata !{i32 786478, metadata !116, metadata !"_ZTSSt6vectorI6ImagesSaIS0_EE", metadata !"front", metadata !"front", metadata !"_ZNSt6vectorI6ImagesSaIS0_EE5frontEv", i32 851, metadata !208, i1 false, i1 false, i32 0, i32 0, null, i32 256, i1 false, null, null, i32 0, null, i32 851} ; [ DW_TAG_subprogram ] [line 851] [front]
!208 = metadata !{i32 786453, i32 0, null, metadata !"", i32 0, i64 0, i64 0, i64 0, i32 0, null, metadata !209, i32 0, null, null, null} ; [ DW_TAG_subroutine_type ] [line 0, size 0, align 0, offset 0] [from ]
!209 = metadata !{metadata !188, metadata !122}
!210 = metadata !{i32 786478, metadata !116, metadata !"_ZTSSt6vectorI6ImagesSaIS0_EE", metadata !"front", metadata !"front", metadata !"_ZNKSt6vectorI6ImagesSaIS0_EE5frontEv", i32 859, metadata !211, i1 false, i1 false, i32 0, i32 0, null, i32 256, i1 false, null, null, i32 0, null, i32 859} ; [ DW_TAG_subprogram ] [line 859] [front]
!211 = metadata !{i32 786453, i32 0, null, metadata !"", i32 0, i64 0, i64 0, i64 0, i32 0, null, metadata !212, i32 0, null, null, null} ; [ DW_TAG_subroutine_type ] [line 0, size 0, align 0, offset 0] [from ]
!212 = metadata !{metadata !197, metadata !158}
!213 = metadata !{i32 786478, metadata !116, metadata !"_ZTSSt6vectorI6ImagesSaIS0_EE", metadata !"back", metadata !"back", metadata !"_ZNSt6vectorI6ImagesSaIS0_EE4backEv", i32 867, metadata !208, i1 false, i1 false, i32 0, i32 0, null, i32 256, i1 false, null, null, i32 0, null, i32 867} ; [ DW_TAG_subprogram ] [line 867] [back]
!214 = metadata !{i32 786478, metadata !116, metadata !"_ZTSSt6vectorI6ImagesSaIS0_EE", metadata !"back", metadata !"back", metadata !"_ZNKSt6vectorI6ImagesSaIS0_EE4backEv", i32 875, metadata !211, i1 false, i1 false, i32 0, i32 0, null, i32 256, i1 false, null, null, i32 0, null, i32 875} ; [ DW_TAG_subprogram ] [line 875] [back]
!215 = metadata !{i32 786478, metadata !116, metadata !"_ZTSSt6vectorI6ImagesSaIS0_EE", metadata !"data", metadata !"data", metadata !"_ZNSt6vectorI6ImagesSaIS0_EE4dataEv", i32 890, metadata !216, i1 false, i1 false, i32 0, i32 0, null, i32 256, i1 false, null, null, i32 0, null, i32 890} ; [ DW_TAG_subprogram ] [line 890] [data]
!216 = metadata !{i32 786453, i32 0, null, metadata !"", i32 0, i64 0, i64 0, i64 0, i32 0, null, metadata !217, i32 0, null, null, null} ; [ DW_TAG_subroutine_type ] [line 0, size 0, align 0, offset 0] [from ]
!217 = metadata !{metadata !218, metadata !122}
!218 = metadata !{i32 786454, metadata !116, metadata !"_ZTSSt6vectorI6ImagesSaIS0_EE", metadata !"pointer", i32 227, i64 0, i64 0, i64 0, i32 0, metadata !219} ; [ DW_TAG_typedef ] [pointer] [line 227, size 0, align 0, offset 0] [from pointer]
!219 = metadata !{i32 786454, metadata !116, metadata !"_ZTSSt12_Vector_baseI6ImagesSaIS0_EE", metadata !"pointer", i32 77, i64 0, i64 0, i64 0, i32 0, metadata !220} ; [ DW_TAG_typedef ] [pointer] [line 77, size 0, align 0, offset 0] [from pointer]
!220 = metadata !{i32 786454, metadata !190, metadata !"_ZTSN9__gnu_cxx14__alloc_traitsISaI6ImagesEEE", metadata !"pointer", i32 172, i64 0, i64 0, i64 0, i32 0, metadata !221} ; [ DW_TAG_typedef ] [pointer] [line 172, size 0, align 0, offset 0] [from pointer]
!221 = metadata !{i32 786454, metadata !192, metadata !"_ZTSSaI6ImagesE", metadata !"pointer", i32 97, i64 0, i64 0, i64 0, i32 0, metadata !222} ; [ DW_TAG_typedef ] [pointer] [line 97, size 0, align 0, offset 0] [from ]
!222 = metadata !{i32 786447, null, null, metadata !"", i32 0, i64 32, i64 32, i64 0, i32 0, metadata !"_ZTS6Images"} ; [ DW_TAG_pointer_type ] [line 0, size 32, align 32, offset 0] [from _ZTS6Images]
!223 = metadata !{i32 786478, metadata !116, metadata !"_ZTSSt6vectorI6ImagesSaIS0_EE", metadata !"data", metadata !"data", metadata !"_ZNKSt6vectorI6ImagesSaIS0_EE4dataEv", i32 898, metadata !224, i1 false, i1 false, i32 0, i32 0, null, i32 256, i1 false, null, null, i32 0, null, i32 898} ; [ DW_TAG_subprogram ] [line 898] [data]
!224 = metadata !{i32 786453, i32 0, null, metadata !"", i32 0, i64 0, i64 0, i64 0, i32 0, null, metadata !225, i32 0, null, null, null} ; [ DW_TAG_subroutine_type ] [line 0, size 0, align 0, offset 0] [from ]
!225 = metadata !{metadata !226, metadata !158}
!226 = metadata !{i32 786454, metadata !116, metadata !"_ZTSSt6vectorI6ImagesSaIS0_EE", metadata !"const_pointer", i32 228, i64 0, i64 0, i64 0, i32 0, metadata !227} ; [ DW_TAG_typedef ] [const_pointer] [line 228, size 0, align 0, offset 0] [from const_pointer]
!227 = metadata !{i32 786454, metadata !190, metadata !"_ZTSN9__gnu_cxx14__alloc_traitsISaI6ImagesEEE", metadata !"const_pointer", i32 173, i64 0, i64 0, i64 0, i32 0, metadata !228} ; [ DW_TAG_typedef ] [const_pointer] [line 173, size 0, align 0, offset 0] [from const_pointer]
!228 = metadata !{i32 786454, metadata !192, metadata !"_ZTSSaI6ImagesE", metadata !"const_pointer", i32 98, i64 0, i64 0, i64 0, i32 0, metadata !229} ; [ DW_TAG_typedef ] [const_pointer] [line 98, size 0, align 0, offset 0] [from ]
!229 = metadata !{i32 786447, null, null, metadata !"", i32 0, i64 32, i64 32, i64 0, i32 0, metadata !201} ; [ DW_TAG_pointer_type ] [line 0, size 32, align 32, offset 0] [from ]
!230 = metadata !{i32 786478, metadata !116, metadata !"_ZTSSt6vectorI6ImagesSaIS0_EE", metadata !"push_back", metadata !"push_back", metadata !"_ZNSt6vectorI6ImagesSaIS0_EE9push_backERKS0_", i32 913, metadata !231, i1 false, i1 false, i32 0, i32 0, null, i32 256, i1 false, null, null, i32 0, null, i32 913} ; [ DW_TAG_subprogram ] [line 913] [push_back]
!231 = metadata !{i32 786453, i32 0, null, metadata !"", i32 0, i64 0, i64 0, i64 0, i32 0, null, metadata !232, i32 0, null, null, null} ; [ DW_TAG_subroutine_type ] [line 0, size 0, align 0, offset 0] [from ]
!232 = metadata !{null, metadata !122, metadata !134}
!233 = metadata !{i32 786478, metadata !116, metadata !"_ZTSSt6vectorI6ImagesSaIS0_EE", metadata !"pop_back", metadata !"pop_back", metadata !"_ZNSt6vectorI6ImagesSaIS0_EE8pop_backEv", i32 949, metadata !120, i1 false, i1 false, i32 0, i32 0, null, i32 256, i1 false, null, null, i32 0, null, i32 949} ; [ DW_TAG_subprogram ] [line 949] [pop_back]
!234 = metadata !{i32 786478, metadata !116, metadata !"_ZTSSt6vectorI6ImagesSaIS0_EE", metadata !"insert", metadata !"insert", metadata !"_ZNSt6vectorI6ImagesSaIS0_EE6insertEN9__gnu_cxx17__normal_iteratorIPS0_S2_EERKS0_", i32 998, metadata !235, i1 false, i1 false, i32 0, i32 0, null, i32 256, i1 false, null, null, i32 0, null, i32 998} ; [ DW_TAG_subprogram ] [line 998] [insert]
!235 = metadata !{i32 786453, i32 0, null, metadata !"", i32 0, i64 0, i64 0, i64 0, i32 0, null, metadata !236, i32 0, null, null, null} ; [ DW_TAG_subroutine_type ] [line 0, size 0, align 0, offset 0] [from ]
!236 = metadata !{metadata !153, metadata !122, metadata !153, metadata !134}
!237 = metadata !{i32 786478, metadata !116, metadata !"_ZTSSt6vectorI6ImagesSaIS0_EE", metadata !"insert", metadata !"insert", metadata !"_ZNSt6vectorI6ImagesSaIS0_EE6insertEN9__gnu_cxx17__normal_iteratorIPS0_S2_EEjRKS0_", i32 1072, metadata !238, i1 false, i1 false, i32 0, i32 0, null, i32 256, i1 false, null, null, i32 0, null, i32 1072} ; [ DW_TAG_subprogram ] [line 1072] [insert]
!238 = metadata !{i32 786453, i32 0, null, metadata !"", i32 0, i64 0, i64 0, i64 0, i32 0, null, metadata !239, i32 0, null, null, null} ; [ DW_TAG_subroutine_type ] [line 0, size 0, align 0, offset 0] [from ]
!239 = metadata !{null, metadata !122, metadata !153, metadata !132, metadata !134}
!240 = metadata !{i32 786478, metadata !116, metadata !"_ZTSSt6vectorI6ImagesSaIS0_EE", metadata !"erase", metadata !"erase", metadata !"_ZNSt6vectorI6ImagesSaIS0_EE5eraseEN9__gnu_cxx17__normal_iteratorIPS0_S2_EE", i32 1149, metadata !241, i1 false, i1 false, i32 0, i32 0, null, i32 256, i1 false, null, null, i32 0, null, i32 1149} ; [ DW_TAG_subprogram ] [line 1149] [erase]
!241 = metadata !{i32 786453, i32 0, null, metadata !"", i32 0, i64 0, i64 0, i64 0, i32 0, null, metadata !242, i32 0, null, null, null} ; [ DW_TAG_subroutine_type ] [line 0, size 0, align 0, offset 0] [from ]
!242 = metadata !{metadata !153, metadata !122, metadata !153}
!243 = metadata !{i32 786478, metadata !116, metadata !"_ZTSSt6vectorI6ImagesSaIS0_EE", metadata !"erase", metadata !"erase", metadata !"_ZNSt6vectorI6ImagesSaIS0_EE5eraseEN9__gnu_cxx17__normal_iteratorIPS0_S2_EES6_", i32 1180, metadata !244, i1 false, i1 false, i32 0, i32 0, null, i32 256, i1 false, null, null, i32 0, null, i32 1180} ; [ DW_TAG_subprogram ] [line 1180] [erase]
!244 = metadata !{i32 786453, i32 0, null, metadata !"", i32 0, i64 0, i64 0, i64 0, i32 0, null, metadata !245, i32 0, null, null, null} ; [ DW_TAG_subroutine_type ] [line 0, size 0, align 0, offset 0] [from ]
!245 = metadata !{metadata !153, metadata !122, metadata !153, metadata !153}
!246 = metadata !{i32 786478, metadata !116, metadata !"_ZTSSt6vectorI6ImagesSaIS0_EE", metadata !"swap", metadata !"swap", metadata !"_ZNSt6vectorI6ImagesSaIS0_EE4swapERS2_", i32 1194, metadata !247, i1 false, i1 false, i32 0, i32 0, null, i32 256, i1 false, null, null, i32 0, null, i32 1194} ; [ DW_TAG_subprogram ] [line 1194] [swap]
!247 = metadata !{i32 786453, i32 0, null, metadata !"", i32 0, i64 0, i64 0, i64 0, i32 0, null, metadata !248, i32 0, null, null, null} ; [ DW_TAG_subroutine_type ] [line 0, size 0, align 0, offset 0] [from ]
!248 = metadata !{null, metadata !122, metadata !146}
!249 = metadata !{i32 786478, metadata !116, metadata !"_ZTSSt6vectorI6ImagesSaIS0_EE", metadata !"clear", metadata !"clear", metadata !"_ZNSt6vectorI6ImagesSaIS0_EE5clearEv", i32 1211, metadata !120, i1 false, i1 false, i32 0, i32 0, null, i32 256, i1 false, null, null, i32 0, null, i32 1211} ; [ DW_TAG_subprogram ] [line 1211] [clear]
!250 = metadata !{i32 786478, metadata !116, metadata !"_ZTSSt6vectorI6ImagesSaIS0_EE", metadata !"_M_fill_initialize", metadata !"_M_fill_initialize", metadata !"_ZNSt6vectorI6ImagesSaIS0_EE18_M_fill_initializeEjRKS0_", i32 1298, metadata !148, i1 false, i1 false, i32 0, i32 0, null, i32 258, i1 false, null, null, i32 0, null, i32 1298} ; [ DW_TAG_subprogram ] [line 1298] [protected] [_M_fill_initialize]
!251 = metadata !{i32 786478, metadata !116, metadata !"_ZTSSt6vectorI6ImagesSaIS0_EE", metadata !"_M_fill_assign", metadata !"_M_fill_assign", metadata !"_ZNSt6vectorI6ImagesSaIS0_EE14_M_fill_assignEjRKS0_", i32 1354, metadata !148, i1 false, i1 false, i32 0, i32 0, null, i32 258, i1 false, null, null, i32 0, null, i32 1354} ; [ DW_TAG_subprogram ] [line 1354] [protected] [_M_fill_assign]
!252 = metadata !{i32 786478, metadata !116, metadata !"_ZTSSt6vectorI6ImagesSaIS0_EE", metadata !"_M_fill_insert", metadata !"_M_fill_insert", metadata !"_ZNSt6vectorI6ImagesSaIS0_EE14_M_fill_insertEN9__gnu_cxx17__normal_iteratorIPS0_S2_EEjRKS0_", i32 1395, metadata !238, i1 false, i1 false, i32 0, i32 0, null, i32 258, i1 false, null, null, i32 0, null, i32 1395} ; [ DW_TAG_subprogram ] [line 1395] [protected] [_M_fill_insert]
!253 = metadata !{i32 786478, metadata !116, metadata !"_ZTSSt6vectorI6ImagesSaIS0_EE", metadata !"_M_insert_aux", metadata !"_M_insert_aux", metadata !"_ZNSt6vectorI6ImagesSaIS0_EE13_M_insert_auxEN9__gnu_cxx17__normal_iteratorIPS0_S2_EERKS0_", i32 1409, metadata !254, i1 false, i1 false, i32 0, i32 0, null, i32 258, i1 false, null, null, i32 0, null, i32 1409} ; [ DW_TAG_subprogram ] [line 1409] [protected] [_M_insert_aux]
!254 = metadata !{i32 786453, i32 0, null, metadata !"", i32 0, i64 0, i64 0, i64 0, i32 0, null, metadata !255, i32 0, null, null, null} ; [ DW_TAG_subroutine_type ] [line 0, size 0, align 0, offset 0] [from ]
!255 = metadata !{null, metadata !122, metadata !153, metadata !134}
!256 = metadata !{i32 786478, metadata !116, metadata !"_ZTSSt6vectorI6ImagesSaIS0_EE", metadata !"_M_check_len", metadata !"_M_check_len", metadata !"_ZNKSt6vectorI6ImagesSaIS0_EE12_M_check_lenEjPKc", i32 1422, metadata !257, i1 false, i1 false, i32 0, i32 0, null, i32 258, i1 false, null, null, i32 0, null, i32 1422} ; [ DW_TAG_subprogram ] [line 1422] [protected] [_M_check_len]
!257 = metadata !{i32 786453, i32 0, null, metadata !"", i32 0, i64 0, i64 0, i64 0, i32 0, null, metadata !258, i32 0, null, null, null} ; [ DW_TAG_subroutine_type ] [line 0, size 0, align 0, offset 0] [from ]
!258 = metadata !{metadata !132, metadata !158, metadata !132, metadata !259}
!259 = metadata !{i32 786447, null, null, metadata !"", i32 0, i64 32, i64 32, i64 0, i32 0, metadata !260} ; [ DW_TAG_pointer_type ] [line 0, size 32, align 32, offset 0] [from ]
!260 = metadata !{i32 786470, null, null, metadata !"", i32 0, i64 0, i64 0, i64 0, i32 0, metadata !43} ; [ DW_TAG_const_type ] [line 0, size 0, align 0, offset 0] [from char]
!261 = metadata !{i32 786478, metadata !116, metadata !"_ZTSSt6vectorI6ImagesSaIS0_EE", metadata !"_M_erase_at_end", metadata !"_M_erase_at_end", metadata !"_ZNSt6vectorI6ImagesSaIS0_EE15_M_erase_at_endEPS0_", i32 1436, metadata !262, i1 false, i1 false, i32 0, i32 0, null, i32 258, i1 false, null, null, i32 0, null, i32 1436} ; [ DW_TAG_subprogram ] [line 1436] [protected] [_M_erase_at_end]
!262 = metadata !{i32 786453, i32 0, null, metadata !"", i32 0, i64 0, i64 0, i64 0, i32 0, null, metadata !263, i32 0, null, null, null} ; [ DW_TAG_subroutine_type ] [line 0, size 0, align 0, offset 0] [from ]
!263 = metadata !{null, metadata !122, metadata !218}
!264 = metadata !{i32 786478, metadata !116, metadata !"_ZTSSt6vectorI6ImagesSaIS0_EE", metadata !"_M_erase", metadata !"_M_erase", metadata !"_ZNSt6vectorI6ImagesSaIS0_EE8_M_eraseEN9__gnu_cxx17__normal_iteratorIPS0_S2_EE", i32 1443, metadata !241, i1 false, i1 false, i32 0, i32 0, null, i32 258, i1 false, null, null, i32 0, null, i32 1443} ; [ DW_TAG_subprogram ] [line 1443] [protected] [_M_erase]
!265 = metadata !{i32 786478, metadata !116, metadata !"_ZTSSt6vectorI6ImagesSaIS0_EE", metadata !"_M_erase", metadata !"_M_erase", metadata !"_ZNSt6vectorI6ImagesSaIS0_EE8_M_eraseEN9__gnu_cxx17__normal_iteratorIPS0_S2_EES6_", i32 1446, metadata !244, i1 false, i1 false, i32 0, i32 0, null, i32 258, i1 false, null, null, i32 0, null, i32 1446} ; [ DW_TAG_subprogram ] [line 1446] [protected] [_M_erase]
!266 = metadata !{metadata !267, metadata !268}
!267 = metadata !{i32 786479, null, metadata !"_Tp", metadata !"_ZTS6Images", null, i32 0, i32 0} ; [ DW_TAG_template_type_parameter ]
!268 = metadata !{i32 786479, null, metadata !"_Alloc", metadata !"_ZTSSaI6ImagesE", null, i32 0, i32 0} ; [ DW_TAG_template_type_parameter ]
!269 = metadata !{i32 786434, metadata !270, null, metadata !"Images", i32 9, i64 128, i64 32, i32 0, i32 0, null, metadata !271, i32 0, null, null, metadata !"_ZTS6Images"} ; [ DW_TAG_class_type ] [Images] [line 9, size 128, align 32, offset 0] [def] [from ]
!270 = metadata !{metadata !"/home/student/sbm99/hldda_project/code/gatesrec_hw3/images.h", metadata !"/home/student/sbm99/hldda_project/code/gatesrec_hw3"}
!271 = metadata !{metadata !272, metadata !273, metadata !274, metadata !275, metadata !278, metadata !282, metadata !285, metadata !286, metadata !287, metadata !290, metadata !293, metadata !296, metadata !297, metadata !300}
!272 = metadata !{i32 786445, metadata !270, metadata !"_ZTS6Images", metadata !"frames", i32 73, i64 32, i64 32, i64 0, i32 1, metadata !20} ; [ DW_TAG_member ] [frames] [line 73, size 32, align 32, offset 0] [private] [from int]
!273 = metadata !{i32 786445, metadata !270, metadata !"_ZTS6Images", metadata !"rows", i32 74, i64 32, i64 32, i64 32, i32 1, metadata !20} ; [ DW_TAG_member ] [rows] [line 74, size 32, align 32, offset 32] [private] [from int]
!274 = metadata !{i32 786445, metadata !270, metadata !"_ZTS6Images", metadata !"cols", i32 75, i64 32, i64 32, i64 64, i32 1, metadata !20} ; [ DW_TAG_member ] [cols] [line 75, size 32, align 32, offset 64] [private] [from int]
!275 = metadata !{i32 786445, metadata !270, metadata !"_ZTS6Images", metadata !"data", i32 76, i64 32, i64 32, i64 96, i32 1, metadata !276} ; [ DW_TAG_member ] [data] [line 76, size 32, align 32, offset 96] [private] [from ]
!276 = metadata !{i32 786447, null, null, metadata !"", i32 0, i64 32, i64 32, i64 0, i32 0, metadata !277} ; [ DW_TAG_pointer_type ] [line 0, size 32, align 32, offset 0] [from float]
!277 = metadata !{i32 786468, null, null, metadata !"float", i32 0, i64 32, i64 32, i64 0, i32 0, i32 4} ; [ DW_TAG_base_type ] [float] [line 0, size 32, align 32, offset 0, enc DW_ATE_float]
!278 = metadata !{i32 786478, metadata !270, metadata !"_ZTS6Images", metadata !"Images", metadata !"Images", metadata !"", i32 11, metadata !279, i1 false, i1 false, i32 0, i32 0, null, i32 256, i1 false, null, null, i32 0, null, i32 11} ; [ DW_TAG_subprogram ] [line 11] [Images]
!279 = metadata !{i32 786453, i32 0, null, metadata !"", i32 0, i64 0, i64 0, i64 0, i32 0, null, metadata !280, i32 0, null, null, null} ; [ DW_TAG_subroutine_type ] [line 0, size 0, align 0, offset 0] [from ]
!280 = metadata !{null, metadata !281, metadata !20, metadata !20, metadata !20, metadata !276}
!281 = metadata !{i32 786447, null, null, metadata !"", i32 0, i64 32, i64 32, i64 0, i32 1088, metadata !"_ZTS6Images"} ; [ DW_TAG_pointer_type ] [line 0, size 32, align 32, offset 0] [artificial] [from _ZTS6Images]
!282 = metadata !{i32 786478, metadata !270, metadata !"_ZTS6Images", metadata !"get_frames", metadata !"get_frames", metadata !"_ZN6Images10get_framesEv", i32 21, metadata !283, i1 false, i1 false, i32 0, i32 0, null, i32 256, i1 false, null, null, i32 0, null, i32 21} ; [ DW_TAG_subprogram ] [line 21] [get_frames]
!283 = metadata !{i32 786453, i32 0, null, metadata !"", i32 0, i64 0, i64 0, i64 0, i32 0, null, metadata !284, i32 0, null, null, null} ; [ DW_TAG_subroutine_type ] [line 0, size 0, align 0, offset 0] [from ]
!284 = metadata !{metadata !20, metadata !281}
!285 = metadata !{i32 786478, metadata !270, metadata !"_ZTS6Images", metadata !"get_rows", metadata !"get_rows", metadata !"_ZN6Images8get_rowsEv", i32 23, metadata !283, i1 false, i1 false, i32 0, i32 0, null, i32 256, i1 false, null, null, i32 0, null, i32 23} ; [ DW_TAG_subprogram ] [line 23] [get_rows]
!286 = metadata !{i32 786478, metadata !270, metadata !"_ZTS6Images", metadata !"get_cols", metadata !"get_cols", metadata !"_ZN6Images8get_colsEv", i32 25, metadata !283, i1 false, i1 false, i32 0, i32 0, null, i32 256, i1 false, null, null, i32 0, null, i32 25} ; [ DW_TAG_subprogram ] [line 25] [get_cols]
!287 = metadata !{i32 786478, metadata !270, metadata !"_ZTS6Images", metadata !"get_data", metadata !"get_data", metadata !"_ZN6Images8get_dataEv", i32 27, metadata !288, i1 false, i1 false, i32 0, i32 0, null, i32 256, i1 false, null, null, i32 0, null, i32 27} ; [ DW_TAG_subprogram ] [line 27] [get_data]
!288 = metadata !{i32 786453, i32 0, null, metadata !"", i32 0, i64 0, i64 0, i64 0, i32 0, null, metadata !289, i32 0, null, null, null} ; [ DW_TAG_subroutine_type ] [line 0, size 0, align 0, offset 0] [from ]
!289 = metadata !{metadata !276, metadata !281}
!290 = metadata !{i32 786478, metadata !270, metadata !"_ZTS6Images", metadata !"get", metadata !"get", metadata !"_ZN6Images3getEiii", i32 29, metadata !291, i1 false, i1 false, i32 0, i32 0, null, i32 256, i1 false, null, null, i32 0, null, i32 29} ; [ DW_TAG_subprogram ] [line 29] [get]
!291 = metadata !{i32 786453, i32 0, null, metadata !"", i32 0, i64 0, i64 0, i64 0, i32 0, null, metadata !292, i32 0, null, null, null} ; [ DW_TAG_subroutine_type ] [line 0, size 0, align 0, offset 0] [from ]
!292 = metadata !{metadata !277, metadata !281, metadata !20, metadata !20, metadata !20}
!293 = metadata !{i32 786478, metadata !270, metadata !"_ZTS6Images", metadata !"add", metadata !"add", metadata !"_ZN6Images3addEiiif", i32 36, metadata !294, i1 false, i1 false, i32 0, i32 0, null, i32 256, i1 false, null, null, i32 0, null, i32 36} ; [ DW_TAG_subprogram ] [line 36] [add]
!294 = metadata !{i32 786453, i32 0, null, metadata !"", i32 0, i64 0, i64 0, i64 0, i32 0, null, metadata !295, i32 0, null, null, null} ; [ DW_TAG_subroutine_type ] [line 0, size 0, align 0, offset 0] [from ]
!295 = metadata !{null, metadata !281, metadata !20, metadata !20, metadata !20, metadata !277}
!296 = metadata !{i32 786478, metadata !270, metadata !"_ZTS6Images", metadata !"set", metadata !"set", metadata !"_ZN6Images3setEiiif", i32 43, metadata !294, i1 false, i1 false, i32 0, i32 0, null, i32 256, i1 false, null, null, i32 0, null, i32 43} ; [ DW_TAG_subprogram ] [line 43] [set]
!297 = metadata !{i32 786478, metadata !270, metadata !"_ZTS6Images", metadata !"print", metadata !"print", metadata !"_ZN6Images5printEv", i32 47, metadata !298, i1 false, i1 false, i32 0, i32 0, null, i32 256, i1 false, null, null, i32 0, null, i32 47} ; [ DW_TAG_subprogram ] [line 47] [print]
!298 = metadata !{i32 786453, i32 0, null, metadata !"", i32 0, i64 0, i64 0, i64 0, i32 0, null, metadata !299, i32 0, null, null, null} ; [ DW_TAG_subroutine_type ] [line 0, size 0, align 0, offset 0] [from ]
!299 = metadata !{null, metadata !281}
!300 = metadata !{i32 786478, metadata !270, metadata !"_ZTS6Images", metadata !"print", metadata !"print", metadata !"_ZN6Images5printEi", i32 60, metadata !301, i1 false, i1 false, i32 0, i32 0, null, i32 256, i1 false, null, null, i32 0, null, i32 60} ; [ DW_TAG_subprogram ] [line 60] [print]
!301 = metadata !{i32 786453, i32 0, null, metadata !"", i32 0, i64 0, i64 0, i64 0, i32 0, null, metadata !302, i32 0, null, null, null} ; [ DW_TAG_subroutine_type ] [line 0, size 0, align 0, offset 0] [from ]
!302 = metadata !{null, metadata !281, metadata !20}
!303 = metadata !{i32 786434, metadata !192, metadata !5, metadata !"allocator<Images>", i32 92, i64 8, i64 8, i32 0, i32 0, null, metadata !304, i32 0, null, metadata !316, metadata !"_ZTSSaI6ImagesE"} ; [ DW_TAG_class_type ] [allocator<Images>] [line 92, size 8, align 8, offset 0] [def] [from ]
!304 = metadata !{metadata !305, metadata !306, metadata !310, metadata !315}
!305 = metadata !{i32 786460, null, metadata !"_ZTSSaI6ImagesE", null, i32 0, i64 0, i64 0, i64 0, i32 0, metadata !"_ZTSN9__gnu_cxx13new_allocatorI6ImagesEE"} ; [ DW_TAG_inheritance ] [line 0, size 0, align 0, offset 0] [from _ZTSN9__gnu_cxx13new_allocatorI6ImagesEE]
!306 = metadata !{i32 786478, metadata !192, metadata !"_ZTSSaI6ImagesE", metadata !"allocator", metadata !"allocator", metadata !"", i32 113, metadata !307, i1 false, i1 false, i32 0, i32 0, null, i32 256, i1 false, null, null, i32 0, null, i32 113} ; [ DW_TAG_subprogram ] [line 113] [allocator]
!307 = metadata !{i32 786453, i32 0, null, metadata !"", i32 0, i64 0, i64 0, i64 0, i32 0, null, metadata !308, i32 0, null, null, null} ; [ DW_TAG_subroutine_type ] [line 0, size 0, align 0, offset 0] [from ]
!308 = metadata !{null, metadata !309}
!309 = metadata !{i32 786447, null, null, metadata !"", i32 0, i64 32, i64 32, i64 0, i32 1088, metadata !"_ZTSSaI6ImagesE"} ; [ DW_TAG_pointer_type ] [line 0, size 32, align 32, offset 0] [artificial] [from _ZTSSaI6ImagesE]
!310 = metadata !{i32 786478, metadata !192, metadata !"_ZTSSaI6ImagesE", metadata !"allocator", metadata !"allocator", metadata !"", i32 115, metadata !311, i1 false, i1 false, i32 0, i32 0, null, i32 256, i1 false, null, null, i32 0, null, i32 115} ; [ DW_TAG_subprogram ] [line 115] [allocator]
!311 = metadata !{i32 786453, i32 0, null, metadata !"", i32 0, i64 0, i64 0, i64 0, i32 0, null, metadata !312, i32 0, null, null, null} ; [ DW_TAG_subroutine_type ] [line 0, size 0, align 0, offset 0] [from ]
!312 = metadata !{null, metadata !309, metadata !313}
!313 = metadata !{i32 786448, null, null, null, i32 0, i64 0, i64 0, i64 0, i32 0, metadata !314} ; [ DW_TAG_reference_type ] [line 0, size 0, align 0, offset 0] [from ]
!314 = metadata !{i32 786470, null, null, metadata !"", i32 0, i64 0, i64 0, i64 0, i32 0, metadata !"_ZTSSaI6ImagesE"} ; [ DW_TAG_const_type ] [line 0, size 0, align 0, offset 0] [from _ZTSSaI6ImagesE]
!315 = metadata !{i32 786478, metadata !192, metadata !"_ZTSSaI6ImagesE", metadata !"~allocator", metadata !"~allocator", metadata !"", i32 121, metadata !307, i1 false, i1 false, i32 0, i32 0, null, i32 256, i1 false, null, null, i32 0, null, i32 121} ; [ DW_TAG_subprogram ] [line 121] [~allocator]
!316 = metadata !{metadata !267}
!317 = metadata !{i32 786434, metadata !318, metadata !319, metadata !"new_allocator<Images>", i32 58, i64 8, i64 8, i32 0, i32 0, null, metadata !321, i32 0, null, metadata !316, metadata !"_ZTSN9__gnu_cxx13new_allocatorI6ImagesEE"} ; [ DW_TAG_class_type ] [new_allocator<Images>] [line 58, size 8, align 8, offset 0] [def] [from ]
!318 = metadata !{metadata !"/work/zhang/common/tools/xilinx/SDSoC/2015.2.1/SDK/2015.2/gnu/arm/lin/arm-xilinx-linux-gnueabi/include/c++/4.9.1/ext/new_allocator.h", metadata !"/home/student/sbm99/hldda_project/code/gatesrec_hw3"}
!319 = metadata !{i32 786489, metadata !320, null, metadata !"__gnu_cxx", i32 241} ; [ DW_TAG_namespace ] [__gnu_cxx] [line 241]
!320 = metadata !{metadata !"/work/zhang/common/tools/xilinx/SDSoC/2015.2.1/SDK/2015.2/gnu/arm/lin/arm-xilinx-linux-gnueabi/include/c++/4.9.1/cwchar", metadata !"/home/student/sbm99/hldda_project/code/gatesrec_hw3"}
!321 = metadata !{metadata !322, metadata !326, metadata !331, metadata !332, metadata !338, metadata !343, metadata !349, metadata !352, metadata !355, metadata !358}
!322 = metadata !{i32 786478, metadata !318, metadata !"_ZTSN9__gnu_cxx13new_allocatorI6ImagesEE", metadata !"new_allocator", metadata !"new_allocator", metadata !"", i32 79, metadata !323, i1 false, i1 false, i32 0, i32 0, null, i32 256, i1 false, null, null, i32 0, null, i32 79} ; [ DW_TAG_subprogram ] [line 79] [new_allocator]
!323 = metadata !{i32 786453, i32 0, null, metadata !"", i32 0, i64 0, i64 0, i64 0, i32 0, null, metadata !324, i32 0, null, null, null} ; [ DW_TAG_subroutine_type ] [line 0, size 0, align 0, offset 0] [from ]
!324 = metadata !{null, metadata !325}
!325 = metadata !{i32 786447, null, null, metadata !"", i32 0, i64 32, i64 32, i64 0, i32 1088, metadata !"_ZTSN9__gnu_cxx13new_allocatorI6ImagesEE"} ; [ DW_TAG_pointer_type ] [line 0, size 32, align 32, offset 0] [artificial] [from _ZTSN9__gnu_cxx13new_allocatorI6ImagesEE]
!326 = metadata !{i32 786478, metadata !318, metadata !"_ZTSN9__gnu_cxx13new_allocatorI6ImagesEE", metadata !"new_allocator", metadata !"new_allocator", metadata !"", i32 81, metadata !327, i1 false, i1 false, i32 0, i32 0, null, i32 256, i1 false, null, null, i32 0, null, i32 81} ; [ DW_TAG_subprogram ] [line 81] [new_allocator]
!327 = metadata !{i32 786453, i32 0, null, metadata !"", i32 0, i64 0, i64 0, i64 0, i32 0, null, metadata !328, i32 0, null, null, null} ; [ DW_TAG_subroutine_type ] [line 0, size 0, align 0, offset 0] [from ]
!328 = metadata !{null, metadata !325, metadata !329}
!329 = metadata !{i32 786448, null, null, null, i32 0, i64 0, i64 0, i64 0, i32 0, metadata !330} ; [ DW_TAG_reference_type ] [line 0, size 0, align 0, offset 0] [from ]
!330 = metadata !{i32 786470, null, null, metadata !"", i32 0, i64 0, i64 0, i64 0, i32 0, metadata !"_ZTSN9__gnu_cxx13new_allocatorI6ImagesEE"} ; [ DW_TAG_const_type ] [line 0, size 0, align 0, offset 0] [from _ZTSN9__gnu_cxx13new_allocatorI6ImagesEE]
!331 = metadata !{i32 786478, metadata !318, metadata !"_ZTSN9__gnu_cxx13new_allocatorI6ImagesEE", metadata !"~new_allocator", metadata !"~new_allocator", metadata !"", i32 86, metadata !323, i1 false, i1 false, i32 0, i32 0, null, i32 256, i1 false, null, null, i32 0, null, i32 86} ; [ DW_TAG_subprogram ] [line 86] [~new_allocator]
!332 = metadata !{i32 786478, metadata !318, metadata !"_ZTSN9__gnu_cxx13new_allocatorI6ImagesEE", metadata !"address", metadata !"address", metadata !"_ZNK9__gnu_cxx13new_allocatorI6ImagesE7addressERS1_", i32 89, metadata !333, i1 false, i1 false, i32 0, i32 0, null, i32 256, i1 false, null, null, i32 0, null, i32 89} ; [ DW_TAG_subprogram ] [line 89] [address]
!333 = metadata !{i32 786453, i32 0, null, metadata !"", i32 0, i64 0, i64 0, i64 0, i32 0, null, metadata !334, i32 0, null, null, null} ; [ DW_TAG_subroutine_type ] [line 0, size 0, align 0, offset 0] [from ]
!334 = metadata !{metadata !335, metadata !336, metadata !337}
!335 = metadata !{i32 786454, metadata !318, metadata !"_ZTSN9__gnu_cxx13new_allocatorI6ImagesEE", metadata !"pointer", i32 63, i64 0, i64 0, i64 0, i32 0, metadata !222} ; [ DW_TAG_typedef ] [pointer] [line 63, size 0, align 0, offset 0] [from ]
!336 = metadata !{i32 786447, null, null, metadata !"", i32 0, i64 32, i64 32, i64 0, i32 1088, metadata !330} ; [ DW_TAG_pointer_type ] [line 0, size 32, align 32, offset 0] [artificial] [from ]
!337 = metadata !{i32 786454, metadata !318, metadata !"_ZTSN9__gnu_cxx13new_allocatorI6ImagesEE", metadata !"reference", i32 65, i64 0, i64 0, i64 0, i32 0, metadata !193} ; [ DW_TAG_typedef ] [reference] [line 65, size 0, align 0, offset 0] [from ]
!338 = metadata !{i32 786478, metadata !318, metadata !"_ZTSN9__gnu_cxx13new_allocatorI6ImagesEE", metadata !"address", metadata !"address", metadata !"_ZNK9__gnu_cxx13new_allocatorI6ImagesE7addressERKS1_", i32 93, metadata !339, i1 false, i1 false, i32 0, i32 0, null, i32 256, i1 false, null, null, i32 0, null, i32 93} ; [ DW_TAG_subprogram ] [line 93] [address]
!339 = metadata !{i32 786453, i32 0, null, metadata !"", i32 0, i64 0, i64 0, i64 0, i32 0, null, metadata !340, i32 0, null, null, null} ; [ DW_TAG_subroutine_type ] [line 0, size 0, align 0, offset 0] [from ]
!340 = metadata !{metadata !341, metadata !336, metadata !342}
!341 = metadata !{i32 786454, metadata !318, metadata !"_ZTSN9__gnu_cxx13new_allocatorI6ImagesEE", metadata !"const_pointer", i32 64, i64 0, i64 0, i64 0, i32 0, metadata !229} ; [ DW_TAG_typedef ] [const_pointer] [line 64, size 0, align 0, offset 0] [from ]
!342 = metadata !{i32 786454, metadata !318, metadata !"_ZTSN9__gnu_cxx13new_allocatorI6ImagesEE", metadata !"const_reference", i32 66, i64 0, i64 0, i64 0, i32 0, metadata !200} ; [ DW_TAG_typedef ] [const_reference] [line 66, size 0, align 0, offset 0] [from ]
!343 = metadata !{i32 786478, metadata !318, metadata !"_ZTSN9__gnu_cxx13new_allocatorI6ImagesEE", metadata !"allocate", metadata !"allocate", metadata !"_ZN9__gnu_cxx13new_allocatorI6ImagesE8allocateEjPKv", i32 99, metadata !344, i1 false, i1 false, i32 0, i32 0, null, i32 256, i1 false, null, null, i32 0, null, i32 99} ; [ DW_TAG_subprogram ] [line 99] [allocate]
!344 = metadata !{i32 786453, i32 0, null, metadata !"", i32 0, i64 0, i64 0, i64 0, i32 0, null, metadata !345, i32 0, null, null, null} ; [ DW_TAG_subroutine_type ] [line 0, size 0, align 0, offset 0] [from ]
!345 = metadata !{metadata !335, metadata !325, metadata !346, metadata !347}
!346 = metadata !{i32 786454, metadata !318, null, metadata !"size_type", i32 61, i64 0, i64 0, i64 0, i32 0, metadata !133} ; [ DW_TAG_typedef ] [size_type] [line 61, size 0, align 0, offset 0] [from size_t]
!347 = metadata !{i32 786447, null, null, metadata !"", i32 0, i64 32, i64 32, i64 0, i32 0, metadata !348} ; [ DW_TAG_pointer_type ] [line 0, size 32, align 32, offset 0] [from ]
!348 = metadata !{i32 786470, null, null, metadata !"", i32 0, i64 0, i64 0, i64 0, i32 0, null} ; [ DW_TAG_const_type ] [line 0, size 0, align 0, offset 0] [from ]
!349 = metadata !{i32 786478, metadata !318, metadata !"_ZTSN9__gnu_cxx13new_allocatorI6ImagesEE", metadata !"deallocate", metadata !"deallocate", metadata !"_ZN9__gnu_cxx13new_allocatorI6ImagesE10deallocateEPS1_j", i32 109, metadata !350, i1 false, i1 false, i32 0, i32 0, null, i32 256, i1 false, null, null, i32 0, null, i32 109} ; [ DW_TAG_subprogram ] [line 109] [deallocate]
!350 = metadata !{i32 786453, i32 0, null, metadata !"", i32 0, i64 0, i64 0, i64 0, i32 0, null, metadata !351, i32 0, null, null, null} ; [ DW_TAG_subroutine_type ] [line 0, size 0, align 0, offset 0] [from ]
!351 = metadata !{null, metadata !325, metadata !335, metadata !346}
!352 = metadata !{i32 786478, metadata !318, metadata !"_ZTSN9__gnu_cxx13new_allocatorI6ImagesEE", metadata !"max_size", metadata !"max_size", metadata !"_ZNK9__gnu_cxx13new_allocatorI6ImagesE8max_sizeEv", i32 113, metadata !353, i1 false, i1 false, i32 0, i32 0, null, i32 256, i1 false, null, null, i32 0, null, i32 113} ; [ DW_TAG_subprogram ] [line 113] [max_size]
!353 = metadata !{i32 786453, i32 0, null, metadata !"", i32 0, i64 0, i64 0, i64 0, i32 0, null, metadata !354, i32 0, null, null, null} ; [ DW_TAG_subroutine_type ] [line 0, size 0, align 0, offset 0] [from ]
!354 = metadata !{metadata !346, metadata !336}
!355 = metadata !{i32 786478, metadata !318, metadata !"_ZTSN9__gnu_cxx13new_allocatorI6ImagesEE", metadata !"construct", metadata !"construct", metadata !"_ZN9__gnu_cxx13new_allocatorI6ImagesE9constructEPS1_RKS1_", i32 129, metadata !356, i1 false, i1 false, i32 0, i32 0, null, i32 256, i1 false, null, null, i32 0, null, i32 129} ; [ DW_TAG_subprogram ] [line 129] [construct]
!356 = metadata !{i32 786453, i32 0, null, metadata !"", i32 0, i64 0, i64 0, i64 0, i32 0, null, metadata !357, i32 0, null, null, null} ; [ DW_TAG_subroutine_type ] [line 0, size 0, align 0, offset 0] [from ]
!357 = metadata !{null, metadata !325, metadata !335, metadata !200}
!358 = metadata !{i32 786478, metadata !318, metadata !"_ZTSN9__gnu_cxx13new_allocatorI6ImagesEE", metadata !"destroy", metadata !"destroy", metadata !"_ZN9__gnu_cxx13new_allocatorI6ImagesE7destroyEPS1_", i32 133, metadata !359, i1 false, i1 false, i32 0, i32 0, null, i32 256, i1 false, null, null, i32 0, null, i32 133} ; [ DW_TAG_subprogram ] [line 133] [destroy]
!359 = metadata !{i32 786453, i32 0, null, metadata !"", i32 0, i64 0, i64 0, i64 0, i32 0, null, metadata !360, i32 0, null, null, null} ; [ DW_TAG_subroutine_type ] [line 0, size 0, align 0, offset 0] [from ]
!360 = metadata !{null, metadata !325, metadata !335}
!361 = metadata !{i32 786451, metadata !116, metadata !5, metadata !"_Vector_base<Images, std::allocator<Images> >", i32 72, i64 96, i64 32, i32 0, i32 0, null, metadata !362, i32 0, null, metadata !266, metadata !"_ZTSSt12_Vector_baseI6ImagesSaIS0_EE"} ; [ DW_TAG_structure_type ] [_Vector_base<Images, std::allocator<Images> >] [line 72, size 96, align 32, offset 0] [def] [from ]
!362 = metadata !{metadata !363, metadata !364, metadata !372, metadata !379, metadata !383, metadata !386, metadata !391, metadata !394, metadata !397, metadata !398, metadata !401, metadata !404}
!363 = metadata !{i32 786445, metadata !116, metadata !"_ZTSSt12_Vector_baseI6ImagesSaIS0_EE", metadata !"_M_impl", i32 164, i64 96, i64 32, i64 0, i32 0, metadata !"_ZTSNSt12_Vector_baseI6ImagesSaIS0_EE12_Vector_implE"} ; [ DW_TAG_member ] [_M_impl] [line 164, size 96, align 32, offset 0] [from _ZTSNSt12_Vector_baseI6ImagesSaIS0_EE12_Vector_implE]
!364 = metadata !{i32 786478, metadata !116, metadata !"_ZTSSt12_Vector_baseI6ImagesSaIS0_EE", metadata !"_M_get_Tp_allocator", metadata !"_M_get_Tp_allocator", metadata !"_ZNSt12_Vector_baseI6ImagesSaIS0_EE19_M_get_Tp_allocatorEv", i32 113, metadata !365, i1 false, i1 false, i32 0, i32 0, null, i32 256, i1 false, null, null, i32 0, null, i32 113} ; [ DW_TAG_subprogram ] [line 113] [_M_get_Tp_allocator]
!365 = metadata !{i32 786453, i32 0, null, metadata !"", i32 0, i64 0, i64 0, i64 0, i32 0, null, metadata !366, i32 0, null, null, null} ; [ DW_TAG_subroutine_type ] [line 0, size 0, align 0, offset 0] [from ]
!366 = metadata !{metadata !367, metadata !371}
!367 = metadata !{i32 786448, null, null, null, i32 0, i64 0, i64 0, i64 0, i32 0, metadata !368} ; [ DW_TAG_reference_type ] [line 0, size 0, align 0, offset 0] [from _Tp_alloc_type]
!368 = metadata !{i32 786454, metadata !116, metadata !"_ZTSSt12_Vector_baseI6ImagesSaIS0_EE", metadata !"_Tp_alloc_type", i32 75, i64 0, i64 0, i64 0, i32 0, metadata !369} ; [ DW_TAG_typedef ] [_Tp_alloc_type] [line 75, size 0, align 0, offset 0] [from other]
!369 = metadata !{i32 786454, metadata !190, metadata !"_ZTSN9__gnu_cxx14__alloc_traitsISaI6ImagesEE6rebindIS1_EE", metadata !"other", i32 208, i64 0, i64 0, i64 0, i32 0, metadata !370} ; [ DW_TAG_typedef ] [other] [line 208, size 0, align 0, offset 0] [from other]
!370 = metadata !{i32 786454, metadata !192, metadata !"_ZTSNSaI6ImagesE6rebindIS_EE", metadata !"other", i32 105, i64 0, i64 0, i64 0, i32 0, metadata !"_ZTSSaI6ImagesE"} ; [ DW_TAG_typedef ] [other] [line 105, size 0, align 0, offset 0] [from _ZTSSaI6ImagesE]
!371 = metadata !{i32 786447, null, null, metadata !"", i32 0, i64 32, i64 32, i64 0, i32 1088, metadata !"_ZTSSt12_Vector_baseI6ImagesSaIS0_EE"} ; [ DW_TAG_pointer_type ] [line 0, size 32, align 32, offset 0] [artificial] [from _ZTSSt12_Vector_baseI6ImagesSaIS0_EE]
!372 = metadata !{i32 786478, metadata !116, metadata !"_ZTSSt12_Vector_baseI6ImagesSaIS0_EE", metadata !"_M_get_Tp_allocator", metadata !"_M_get_Tp_allocator", metadata !"_ZNKSt12_Vector_baseI6ImagesSaIS0_EE19_M_get_Tp_allocatorEv", i32 117, metadata !373, i1 false, i1 false, i32 0, i32 0, null, i32 256, i1 false, null, null, i32 0, null, i32 117} ; [ DW_TAG_subprogram ] [line 117] [_M_get_Tp_allocator]
!373 = metadata !{i32 786453, i32 0, null, metadata !"", i32 0, i64 0, i64 0, i64 0, i32 0, null, metadata !374, i32 0, null, null, null} ; [ DW_TAG_subroutine_type ] [line 0, size 0, align 0, offset 0] [from ]
!374 = metadata !{metadata !375, metadata !377}
!375 = metadata !{i32 786448, null, null, null, i32 0, i64 0, i64 0, i64 0, i32 0, metadata !376} ; [ DW_TAG_reference_type ] [line 0, size 0, align 0, offset 0] [from ]
!376 = metadata !{i32 786470, null, null, metadata !"", i32 0, i64 0, i64 0, i64 0, i32 0, metadata !368} ; [ DW_TAG_const_type ] [line 0, size 0, align 0, offset 0] [from _Tp_alloc_type]
!377 = metadata !{i32 786447, null, null, metadata !"", i32 0, i64 32, i64 32, i64 0, i32 1088, metadata !378} ; [ DW_TAG_pointer_type ] [line 0, size 32, align 32, offset 0] [artificial] [from ]
!378 = metadata !{i32 786470, null, null, metadata !"", i32 0, i64 0, i64 0, i64 0, i32 0, metadata !"_ZTSSt12_Vector_baseI6ImagesSaIS0_EE"} ; [ DW_TAG_const_type ] [line 0, size 0, align 0, offset 0] [from _ZTSSt12_Vector_baseI6ImagesSaIS0_EE]
!379 = metadata !{i32 786478, metadata !116, metadata !"_ZTSSt12_Vector_baseI6ImagesSaIS0_EE", metadata !"get_allocator", metadata !"get_allocator", metadata !"_ZNKSt12_Vector_baseI6ImagesSaIS0_EE13get_allocatorEv", i32 121, metadata !380, i1 false, i1 false, i32 0, i32 0, null, i32 256, i1 false, null, null, i32 0, null, i32 121} ; [ DW_TAG_subprogram ] [line 121] [get_allocator]
!380 = metadata !{i32 786453, i32 0, null, metadata !"", i32 0, i64 0, i64 0, i64 0, i32 0, null, metadata !381, i32 0, null, null, null} ; [ DW_TAG_subroutine_type ] [line 0, size 0, align 0, offset 0] [from ]
!381 = metadata !{metadata !382, metadata !377}
!382 = metadata !{i32 786454, metadata !116, metadata !"_ZTSSt12_Vector_baseI6ImagesSaIS0_EE", metadata !"allocator_type", i32 110, i64 0, i64 0, i64 0, i32 0, metadata !"_ZTSSaI6ImagesE"} ; [ DW_TAG_typedef ] [allocator_type] [line 110, size 0, align 0, offset 0] [from _ZTSSaI6ImagesE]
!383 = metadata !{i32 786478, metadata !116, metadata !"_ZTSSt12_Vector_baseI6ImagesSaIS0_EE", metadata !"_Vector_base", metadata !"_Vector_base", metadata !"", i32 124, metadata !384, i1 false, i1 false, i32 0, i32 0, null, i32 256, i1 false, null, null, i32 0, null, i32 124} ; [ DW_TAG_subprogram ] [line 124] [_Vector_base]
!384 = metadata !{i32 786453, i32 0, null, metadata !"", i32 0, i64 0, i64 0, i64 0, i32 0, null, metadata !385, i32 0, null, null, null} ; [ DW_TAG_subroutine_type ] [line 0, size 0, align 0, offset 0] [from ]
!385 = metadata !{null, metadata !371}
!386 = metadata !{i32 786478, metadata !116, metadata !"_ZTSSt12_Vector_baseI6ImagesSaIS0_EE", metadata !"_Vector_base", metadata !"_Vector_base", metadata !"", i32 127, metadata !387, i1 false, i1 false, i32 0, i32 0, null, i32 256, i1 false, null, null, i32 0, null, i32 127} ; [ DW_TAG_subprogram ] [line 127] [_Vector_base]
!387 = metadata !{i32 786453, i32 0, null, metadata !"", i32 0, i64 0, i64 0, i64 0, i32 0, null, metadata !388, i32 0, null, null, null} ; [ DW_TAG_subroutine_type ] [line 0, size 0, align 0, offset 0] [from ]
!388 = metadata !{null, metadata !371, metadata !389}
!389 = metadata !{i32 786448, null, null, null, i32 0, i64 0, i64 0, i64 0, i32 0, metadata !390} ; [ DW_TAG_reference_type ] [line 0, size 0, align 0, offset 0] [from ]
!390 = metadata !{i32 786470, null, null, metadata !"", i32 0, i64 0, i64 0, i64 0, i32 0, metadata !382} ; [ DW_TAG_const_type ] [line 0, size 0, align 0, offset 0] [from allocator_type]
!391 = metadata !{i32 786478, metadata !116, metadata !"_ZTSSt12_Vector_baseI6ImagesSaIS0_EE", metadata !"_Vector_base", metadata !"_Vector_base", metadata !"", i32 130, metadata !392, i1 false, i1 false, i32 0, i32 0, null, i32 256, i1 false, null, null, i32 0, null, i32 130} ; [ DW_TAG_subprogram ] [line 130] [_Vector_base]
!392 = metadata !{i32 786453, i32 0, null, metadata !"", i32 0, i64 0, i64 0, i64 0, i32 0, null, metadata !393, i32 0, null, null, null} ; [ DW_TAG_subroutine_type ] [line 0, size 0, align 0, offset 0] [from ]
!393 = metadata !{null, metadata !371, metadata !133}
!394 = metadata !{i32 786478, metadata !116, metadata !"_ZTSSt12_Vector_baseI6ImagesSaIS0_EE", metadata !"_Vector_base", metadata !"_Vector_base", metadata !"", i32 134, metadata !395, i1 false, i1 false, i32 0, i32 0, null, i32 256, i1 false, null, null, i32 0, null, i32 134} ; [ DW_TAG_subprogram ] [line 134] [_Vector_base]
!395 = metadata !{i32 786453, i32 0, null, metadata !"", i32 0, i64 0, i64 0, i64 0, i32 0, null, metadata !396, i32 0, null, null, null} ; [ DW_TAG_subroutine_type ] [line 0, size 0, align 0, offset 0] [from ]
!396 = metadata !{null, metadata !371, metadata !133, metadata !389}
!397 = metadata !{i32 786478, metadata !116, metadata !"_ZTSSt12_Vector_baseI6ImagesSaIS0_EE", metadata !"~_Vector_base", metadata !"~_Vector_base", metadata !"", i32 159, metadata !384, i1 false, i1 false, i32 0, i32 0, null, i32 256, i1 false, null, null, i32 0, null, i32 159} ; [ DW_TAG_subprogram ] [line 159] [~_Vector_base]
!398 = metadata !{i32 786478, metadata !116, metadata !"_ZTSSt12_Vector_baseI6ImagesSaIS0_EE", metadata !"_M_allocate", metadata !"_M_allocate", metadata !"_ZNSt12_Vector_baseI6ImagesSaIS0_EE11_M_allocateEj", i32 167, metadata !399, i1 false, i1 false, i32 0, i32 0, null, i32 256, i1 false, null, null, i32 0, null, i32 167} ; [ DW_TAG_subprogram ] [line 167] [_M_allocate]
!399 = metadata !{i32 786453, i32 0, null, metadata !"", i32 0, i64 0, i64 0, i64 0, i32 0, null, metadata !400, i32 0, null, null, null} ; [ DW_TAG_subroutine_type ] [line 0, size 0, align 0, offset 0] [from ]
!400 = metadata !{metadata !219, metadata !371, metadata !133}
!401 = metadata !{i32 786478, metadata !116, metadata !"_ZTSSt12_Vector_baseI6ImagesSaIS0_EE", metadata !"_M_deallocate", metadata !"_M_deallocate", metadata !"_ZNSt12_Vector_baseI6ImagesSaIS0_EE13_M_deallocateEPS0_j", i32 174, metadata !402, i1 false, i1 false, i32 0, i32 0, null, i32 256, i1 false, null, null, i32 0, null, i32 174} ; [ DW_TAG_subprogram ] [line 174] [_M_deallocate]
!402 = metadata !{i32 786453, i32 0, null, metadata !"", i32 0, i64 0, i64 0, i64 0, i32 0, null, metadata !403, i32 0, null, null, null} ; [ DW_TAG_subroutine_type ] [line 0, size 0, align 0, offset 0] [from ]
!403 = metadata !{null, metadata !371, metadata !219, metadata !133}
!404 = metadata !{i32 786478, metadata !116, metadata !"_ZTSSt12_Vector_baseI6ImagesSaIS0_EE", metadata !"_M_create_storage", metadata !"_M_create_storage", metadata !"_ZNSt12_Vector_baseI6ImagesSaIS0_EE17_M_create_storageEj", i32 183, metadata !392, i1 false, i1 false, i32 0, i32 0, null, i32 257, i1 false, null, null, i32 0, null, i32 183} ; [ DW_TAG_subprogram ] [line 183] [private] [_M_create_storage]
!405 = metadata !{i32 786451, metadata !116, metadata !"_ZTSSt12_Vector_baseI6ImagesSaIS0_EE", metadata !"_Vector_impl", i32 79, i64 96, i64 32, i32 0, i32 0, null, metadata !406, i32 0, null, null, metadata !"_ZTSNSt12_Vector_baseI6ImagesSaIS0_EE12_Vector_implE"} ; [ DW_TAG_structure_type ] [_Vector_impl] [line 79, size 96, align 32, offset 0] [def] [from ]
!406 = metadata !{metadata !407, metadata !408, metadata !409, metadata !410, metadata !411, metadata !415, metadata !418}
!407 = metadata !{i32 786460, null, metadata !"_ZTSNSt12_Vector_baseI6ImagesSaIS0_EE12_Vector_implE", null, i32 0, i64 0, i64 0, i64 0, i32 0, metadata !368} ; [ DW_TAG_inheritance ] [line 0, size 0, align 0, offset 0] [from _Tp_alloc_type]
!408 = metadata !{i32 786445, metadata !116, metadata !"_ZTSNSt12_Vector_baseI6ImagesSaIS0_EE12_Vector_implE", metadata !"_M_start", i32 82, i64 32, i64 32, i64 0, i32 0, metadata !219} ; [ DW_TAG_member ] [_M_start] [line 82, size 32, align 32, offset 0] [from pointer]
!409 = metadata !{i32 786445, metadata !116, metadata !"_ZTSNSt12_Vector_baseI6ImagesSaIS0_EE12_Vector_implE", metadata !"_M_finish", i32 83, i64 32, i64 32, i64 32, i32 0, metadata !219} ; [ DW_TAG_member ] [_M_finish] [line 83, size 32, align 32, offset 32] [from pointer]
!410 = metadata !{i32 786445, metadata !116, metadata !"_ZTSNSt12_Vector_baseI6ImagesSaIS0_EE12_Vector_implE", metadata !"_M_end_of_storage", i32 84, i64 32, i64 32, i64 64, i32 0, metadata !219} ; [ DW_TAG_member ] [_M_end_of_storage] [line 84, size 32, align 32, offset 64] [from pointer]
!411 = metadata !{i32 786478, metadata !116, metadata !"_ZTSNSt12_Vector_baseI6ImagesSaIS0_EE12_Vector_implE", metadata !"_Vector_impl", metadata !"_Vector_impl", metadata !"", i32 86, metadata !412, i1 false, i1 false, i32 0, i32 0, null, i32 256, i1 false, null, null, i32 0, null, i32 86} ; [ DW_TAG_subprogram ] [line 86] [_Vector_impl]
!412 = metadata !{i32 786453, i32 0, null, metadata !"", i32 0, i64 0, i64 0, i64 0, i32 0, null, metadata !413, i32 0, null, null, null} ; [ DW_TAG_subroutine_type ] [line 0, size 0, align 0, offset 0] [from ]
!413 = metadata !{null, metadata !414}
!414 = metadata !{i32 786447, null, null, metadata !"", i32 0, i64 32, i64 32, i64 0, i32 1088, metadata !"_ZTSNSt12_Vector_baseI6ImagesSaIS0_EE12_Vector_implE"} ; [ DW_TAG_pointer_type ] [line 0, size 32, align 32, offset 0] [artificial] [from _ZTSNSt12_Vector_baseI6ImagesSaIS0_EE12_Vector_implE]
!415 = metadata !{i32 786478, metadata !116, metadata !"_ZTSNSt12_Vector_baseI6ImagesSaIS0_EE12_Vector_implE", metadata !"_Vector_impl", metadata !"_Vector_impl", metadata !"", i32 90, metadata !416, i1 false, i1 false, i32 0, i32 0, null, i32 256, i1 false, null, null, i32 0, null, i32 90} ; [ DW_TAG_subprogram ] [line 90] [_Vector_impl]
!416 = metadata !{i32 786453, i32 0, null, metadata !"", i32 0, i64 0, i64 0, i64 0, i32 0, null, metadata !417, i32 0, null, null, null} ; [ DW_TAG_subroutine_type ] [line 0, size 0, align 0, offset 0] [from ]
!417 = metadata !{null, metadata !414, metadata !375}
!418 = metadata !{i32 786478, metadata !116, metadata !"_ZTSNSt12_Vector_baseI6ImagesSaIS0_EE12_Vector_implE", metadata !"_M_swap_data", metadata !"_M_swap_data", metadata !"_ZNSt12_Vector_baseI6ImagesSaIS0_EE12_Vector_impl12_M_swap_dataERS3_", i32 101, metadata !419, i1 false, i1 false, i32 0, i32 0, null, i32 256, i1 false, null, null, i32 0, null, i32 101} ; [ DW_TAG_subprogram ] [line 101] [_M_swap_data]
!419 = metadata !{i32 786453, i32 0, null, metadata !"", i32 0, i64 0, i64 0, i64 0, i32 0, null, metadata !420, i32 0, null, null, null} ; [ DW_TAG_subroutine_type ] [line 0, size 0, align 0, offset 0] [from ]
!420 = metadata !{null, metadata !414, metadata !421}
!421 = metadata !{i32 786448, null, null, null, i32 0, i64 0, i64 0, i64 0, i32 0, metadata !"_ZTSNSt12_Vector_baseI6ImagesSaIS0_EE12_Vector_implE"} ; [ DW_TAG_reference_type ] [line 0, size 0, align 0, offset 0] [from _ZTSNSt12_Vector_baseI6ImagesSaIS0_EE12_Vector_implE]
!422 = metadata !{i32 786451, metadata !192, metadata !"_ZTSSaI6ImagesE", metadata !"rebind<Images>", i32 104, i64 8, i64 8, i32 0, i32 0, null, metadata !423, i32 0, null, metadata !424, metadata !"_ZTSNSaI6ImagesE6rebindIS_EE"} ; [ DW_TAG_structure_type ] [rebind<Images>] [line 104, size 8, align 8, offset 0] [def] [from ]
!423 = metadata !{}
!424 = metadata !{metadata !425}
!425 = metadata !{i32 786479, null, metadata !"_Tp1", metadata !"_ZTS6Images", null, i32 0, i32 0} ; [ DW_TAG_template_type_parameter ]
!426 = metadata !{i32 786451, metadata !190, metadata !319, metadata !"__alloc_traits<std::allocator<Images> >", i32 95, i64 8, i64 8, i32 0, i32 0, null, metadata !427, i32 0, null, metadata !449, metadata !"_ZTSN9__gnu_cxx14__alloc_traitsISaI6ImagesEEE"} ; [ DW_TAG_structure_type ] [__alloc_traits<std::allocator<Images> >] [line 95, size 8, align 8, offset 0] [def] [from ]
!427 = metadata !{metadata !428, metadata !434, metadata !437, metadata !440, metadata !443, metadata !446}
!428 = metadata !{i32 786478, metadata !190, metadata !"_ZTSN9__gnu_cxx14__alloc_traitsISaI6ImagesEEE", metadata !"allocate", metadata !"allocate", metadata !"_ZN9__gnu_cxx14__alloc_traitsISaI6ImagesEE8allocateERS2_j", i32 181, metadata !429, i1 false, i1 false, i32 0, i32 0, null, i32 256, i1 false, null, null, i32 0, null, i32 181} ; [ DW_TAG_subprogram ] [line 181] [allocate]
!429 = metadata !{i32 786453, i32 0, null, metadata !"", i32 0, i64 0, i64 0, i64 0, i32 0, null, metadata !430, i32 0, null, null, null} ; [ DW_TAG_subroutine_type ] [line 0, size 0, align 0, offset 0] [from ]
!430 = metadata !{metadata !220, metadata !431, metadata !432}
!431 = metadata !{i32 786448, null, null, null, i32 0, i64 0, i64 0, i64 0, i32 0, metadata !"_ZTSSaI6ImagesE"} ; [ DW_TAG_reference_type ] [line 0, size 0, align 0, offset 0] [from _ZTSSaI6ImagesE]
!432 = metadata !{i32 786454, metadata !190, metadata !"_ZTSN9__gnu_cxx14__alloc_traitsISaI6ImagesEEE", metadata !"size_type", i32 177, i64 0, i64 0, i64 0, i32 0, metadata !433} ; [ DW_TAG_typedef ] [size_type] [line 177, size 0, align 0, offset 0] [from size_type]
!433 = metadata !{i32 786454, metadata !192, metadata !"_ZTSSaI6ImagesE", metadata !"size_type", i32 95, i64 0, i64 0, i64 0, i32 0, metadata !133} ; [ DW_TAG_typedef ] [size_type] [line 95, size 0, align 0, offset 0] [from size_t]
!434 = metadata !{i32 786478, metadata !190, metadata !"_ZTSN9__gnu_cxx14__alloc_traitsISaI6ImagesEEE", metadata !"deallocate", metadata !"deallocate", metadata !"_ZN9__gnu_cxx14__alloc_traitsISaI6ImagesEE10deallocateERS2_PS1_j", i32 184, metadata !435, i1 false, i1 false, i32 0, i32 0, null, i32 256, i1 false, null, null, i32 0, null, i32 184} ; [ DW_TAG_subprogram ] [line 184] [deallocate]
!435 = metadata !{i32 786453, i32 0, null, metadata !"", i32 0, i64 0, i64 0, i64 0, i32 0, null, metadata !436, i32 0, null, null, null} ; [ DW_TAG_subroutine_type ] [line 0, size 0, align 0, offset 0] [from ]
!436 = metadata !{null, metadata !431, metadata !220, metadata !432}
!437 = metadata !{i32 786478, metadata !190, metadata !"_ZTSN9__gnu_cxx14__alloc_traitsISaI6ImagesEEE", metadata !"destroy", metadata !"destroy", metadata !"_ZN9__gnu_cxx14__alloc_traitsISaI6ImagesEE7destroyERS2_PS1_", i32 191, metadata !438, i1 false, i1 false, i32 0, i32 0, null, i32 256, i1 false, null, null, i32 0, null, i32 191} ; [ DW_TAG_subprogram ] [line 191] [destroy]
!438 = metadata !{i32 786453, i32 0, null, metadata !"", i32 0, i64 0, i64 0, i64 0, i32 0, null, metadata !439, i32 0, null, null, null} ; [ DW_TAG_subroutine_type ] [line 0, size 0, align 0, offset 0] [from ]
!439 = metadata !{null, metadata !431, metadata !220}
!440 = metadata !{i32 786478, metadata !190, metadata !"_ZTSN9__gnu_cxx14__alloc_traitsISaI6ImagesEEE", metadata !"max_size", metadata !"max_size", metadata !"_ZN9__gnu_cxx14__alloc_traitsISaI6ImagesEE8max_sizeERKS2_", i32 194, metadata !441, i1 false, i1 false, i32 0, i32 0, null, i32 256, i1 false, null, null, i32 0, null, i32 194} ; [ DW_TAG_subprogram ] [line 194] [max_size]
!441 = metadata !{i32 786453, i32 0, null, metadata !"", i32 0, i64 0, i64 0, i64 0, i32 0, null, metadata !442, i32 0, null, null, null} ; [ DW_TAG_subroutine_type ] [line 0, size 0, align 0, offset 0] [from ]
!442 = metadata !{metadata !432, metadata !313}
!443 = metadata !{i32 786478, metadata !190, metadata !"_ZTSN9__gnu_cxx14__alloc_traitsISaI6ImagesEEE", metadata !"_S_select_on_copy", metadata !"_S_select_on_copy", metadata !"_ZN9__gnu_cxx14__alloc_traitsISaI6ImagesEE17_S_select_on_copyERKS2_", i32 197, metadata !444, i1 false, i1 false, i32 0, i32 0, null, i32 256, i1 false, null, null, i32 0, null, i32 197} ; [ DW_TAG_subprogram ] [line 197] [_S_select_on_copy]
!444 = metadata !{i32 786453, i32 0, null, metadata !"", i32 0, i64 0, i64 0, i64 0, i32 0, null, metadata !445, i32 0, null, null, null} ; [ DW_TAG_subroutine_type ] [line 0, size 0, align 0, offset 0] [from ]
!445 = metadata !{metadata !313, metadata !313}
!446 = metadata !{i32 786478, metadata !190, metadata !"_ZTSN9__gnu_cxx14__alloc_traitsISaI6ImagesEEE", metadata !"_S_on_swap", metadata !"_S_on_swap", metadata !"_ZN9__gnu_cxx14__alloc_traitsISaI6ImagesEE10_S_on_swapERS2_S4_", i32 199, metadata !447, i1 false, i1 false, i32 0, i32 0, null, i32 256, i1 false, null, null, i32 0, null, i32 199} ; [ DW_TAG_subprogram ] [line 199] [_S_on_swap]
!447 = metadata !{i32 786453, i32 0, null, metadata !"", i32 0, i64 0, i64 0, i64 0, i32 0, null, metadata !448, i32 0, null, null, null} ; [ DW_TAG_subroutine_type ] [line 0, size 0, align 0, offset 0] [from ]
!448 = metadata !{null, metadata !431, metadata !431}
!449 = metadata !{metadata !268}
!450 = metadata !{i32 786451, metadata !190, metadata !"_ZTSN9__gnu_cxx14__alloc_traitsISaI6ImagesEEE", metadata !"rebind<Images>", i32 207, i64 8, i64 8, i32 0, i32 0, null, metadata !423, i32 0, null, metadata !316, metadata !"_ZTSN9__gnu_cxx14__alloc_traitsISaI6ImagesEE6rebindIS1_EE"} ; [ DW_TAG_structure_type ] [rebind<Images>] [line 207, size 8, align 8, offset 0] [def] [from ]
!451 = metadata !{i32 786434, metadata !452, metadata !319, metadata !"__normal_iterator<Images *, std::vector<Images, std::allocator<Images> > >", i32 709, i64 32, i64 32, i32 0, i32 0, null, metadata !453, i32 0, null, metadata !503, metadata !"_ZTSN9__gnu_cxx17__normal_iteratorIP6ImagesSt6vectorIS1_SaIS1_EEEE"} ; [ DW_TAG_class_type ] [__normal_iterator<Images *, std::vector<Images, std::allocator<Images> > >] [line 709, size 32, align 32, offset 0] [def] [from ]
!452 = metadata !{metadata !"/work/zhang/common/tools/xilinx/SDSoC/2015.2.1/SDK/2015.2/gnu/arm/lin/arm-xilinx-linux-gnueabi/include/c++/4.9.1/bits/stl_iterator.h", metadata !"/home/student/sbm99/hldda_project/code/gatesrec_hw3"}
!453 = metadata !{metadata !454, metadata !455, metadata !459, metadata !464, metadata !472, metadata !477, metadata !481, metadata !484, metadata !485, metadata !486, metadata !492, metadata !495, metadata !498, metadata !499, metadata !500}
!454 = metadata !{i32 786445, metadata !452, metadata !"_ZTSN9__gnu_cxx17__normal_iteratorIP6ImagesSt6vectorIS1_SaIS1_EEEE", metadata !"_M_current", i32 712, i64 32, i64 32, i64 0, i32 2, metadata !222} ; [ DW_TAG_member ] [_M_current] [line 712, size 32, align 32, offset 0] [protected] [from ]
!455 = metadata !{i32 786478, metadata !452, metadata !"_ZTSN9__gnu_cxx17__normal_iteratorIP6ImagesSt6vectorIS1_SaIS1_EEEE", metadata !"__normal_iterator", metadata !"__normal_iterator", metadata !"", i32 724, metadata !456, i1 false, i1 false, i32 0, i32 0, null, i32 256, i1 false, null, null, i32 0, null, i32 724} ; [ DW_TAG_subprogram ] [line 724] [__normal_iterator]
!456 = metadata !{i32 786453, i32 0, null, metadata !"", i32 0, i64 0, i64 0, i64 0, i32 0, null, metadata !457, i32 0, null, null, null} ; [ DW_TAG_subroutine_type ] [line 0, size 0, align 0, offset 0] [from ]
!457 = metadata !{null, metadata !458}
!458 = metadata !{i32 786447, null, null, metadata !"", i32 0, i64 32, i64 32, i64 0, i32 1088, metadata !"_ZTSN9__gnu_cxx17__normal_iteratorIP6ImagesSt6vectorIS1_SaIS1_EEEE"} ; [ DW_TAG_pointer_type ] [line 0, size 32, align 32, offset 0] [artificial] [from _ZTSN9__gnu_cxx17__normal_iteratorIP6ImagesSt6vectorIS1_SaIS1_EEEE]
!459 = metadata !{i32 786478, metadata !452, metadata !"_ZTSN9__gnu_cxx17__normal_iteratorIP6ImagesSt6vectorIS1_SaIS1_EEEE", metadata !"__normal_iterator", metadata !"__normal_iterator", metadata !"", i32 728, metadata !460, i1 false, i1 false, i32 0, i32 0, null, i32 384, i1 false, null, null, i32 0, null, i32 728} ; [ DW_TAG_subprogram ] [line 728] [__normal_iterator]
!460 = metadata !{i32 786453, i32 0, null, metadata !"", i32 0, i64 0, i64 0, i64 0, i32 0, null, metadata !461, i32 0, null, null, null} ; [ DW_TAG_subroutine_type ] [line 0, size 0, align 0, offset 0] [from ]
!461 = metadata !{null, metadata !458, metadata !462}
!462 = metadata !{i32 786448, null, null, null, i32 0, i64 0, i64 0, i64 0, i32 0, metadata !463} ; [ DW_TAG_reference_type ] [line 0, size 0, align 0, offset 0] [from ]
!463 = metadata !{i32 786470, null, null, metadata !"", i32 0, i64 0, i64 0, i64 0, i32 0, metadata !222} ; [ DW_TAG_const_type ] [line 0, size 0, align 0, offset 0] [from ]
!464 = metadata !{i32 786478, metadata !452, metadata !"_ZTSN9__gnu_cxx17__normal_iteratorIP6ImagesSt6vectorIS1_SaIS1_EEEE", metadata !"operator*", metadata !"operator*", metadata !"_ZNK9__gnu_cxx17__normal_iteratorIP6ImagesSt6vectorIS1_SaIS1_EEEdeEv", i32 741, metadata !465, i1 false, i1 false, i32 0, i32 0, null, i32 256, i1 false, null, null, i32 0, null, i32 741} ; [ DW_TAG_subprogram ] [line 741] [operator*]
!465 = metadata !{i32 786453, i32 0, null, metadata !"", i32 0, i64 0, i64 0, i64 0, i32 0, null, metadata !466, i32 0, null, null, null} ; [ DW_TAG_subroutine_type ] [line 0, size 0, align 0, offset 0] [from ]
!466 = metadata !{metadata !467, metadata !470}
!467 = metadata !{i32 786454, metadata !452, metadata !"_ZTSN9__gnu_cxx17__normal_iteratorIP6ImagesSt6vectorIS1_SaIS1_EEEE", metadata !"reference", i32 721, i64 0, i64 0, i64 0, i32 0, metadata !468} ; [ DW_TAG_typedef ] [reference] [line 721, size 0, align 0, offset 0] [from reference]
!468 = metadata !{i32 786454, metadata !469, metadata !"_ZTSSt15iterator_traitsIP6ImagesE", metadata !"reference", i32 181, i64 0, i64 0, i64 0, i32 0, metadata !193} ; [ DW_TAG_typedef ] [reference] [line 181, size 0, align 0, offset 0] [from ]
!469 = metadata !{metadata !"/work/zhang/common/tools/xilinx/SDSoC/2015.2.1/SDK/2015.2/gnu/arm/lin/arm-xilinx-linux-gnueabi/include/c++/4.9.1/bits/stl_iterator_base_types.h", metadata !"/home/student/sbm99/hldda_project/code/gatesrec_hw3"}
!470 = metadata !{i32 786447, null, null, metadata !"", i32 0, i64 32, i64 32, i64 0, i32 1088, metadata !471} ; [ DW_TAG_pointer_type ] [line 0, size 32, align 32, offset 0] [artificial] [from ]
!471 = metadata !{i32 786470, null, null, metadata !"", i32 0, i64 0, i64 0, i64 0, i32 0, metadata !"_ZTSN9__gnu_cxx17__normal_iteratorIP6ImagesSt6vectorIS1_SaIS1_EEEE"} ; [ DW_TAG_const_type ] [line 0, size 0, align 0, offset 0] [from _ZTSN9__gnu_cxx17__normal_iteratorIP6ImagesSt6vectorIS1_SaIS1_EEEE]
!472 = metadata !{i32 786478, metadata !452, metadata !"_ZTSN9__gnu_cxx17__normal_iteratorIP6ImagesSt6vectorIS1_SaIS1_EEEE", metadata !"operator->", metadata !"operator->", metadata !"_ZNK9__gnu_cxx17__normal_iteratorIP6ImagesSt6vectorIS1_SaIS1_EEEptEv", i32 745, metadata !473, i1 false, i1 false, i32 0, i32 0, null, i32 256, i1 false, null, null, i32 0, null, i32 745} ; [ DW_TAG_subprogram ] [line 745] [operator->]
!473 = metadata !{i32 786453, i32 0, null, metadata !"", i32 0, i64 0, i64 0, i64 0, i32 0, null, metadata !474, i32 0, null, null, null} ; [ DW_TAG_subroutine_type ] [line 0, size 0, align 0, offset 0] [from ]
!474 = metadata !{metadata !475, metadata !470}
!475 = metadata !{i32 786454, metadata !452, metadata !"_ZTSN9__gnu_cxx17__normal_iteratorIP6ImagesSt6vectorIS1_SaIS1_EEEE", metadata !"pointer", i32 722, i64 0, i64 0, i64 0, i32 0, metadata !476} ; [ DW_TAG_typedef ] [pointer] [line 722, size 0, align 0, offset 0] [from pointer]
!476 = metadata !{i32 786454, metadata !469, metadata !"_ZTSSt15iterator_traitsIP6ImagesE", metadata !"pointer", i32 180, i64 0, i64 0, i64 0, i32 0, metadata !222} ; [ DW_TAG_typedef ] [pointer] [line 180, size 0, align 0, offset 0] [from ]
!477 = metadata !{i32 786478, metadata !452, metadata !"_ZTSN9__gnu_cxx17__normal_iteratorIP6ImagesSt6vectorIS1_SaIS1_EEEE", metadata !"operator++", metadata !"operator++", metadata !"_ZN9__gnu_cxx17__normal_iteratorIP6ImagesSt6vectorIS1_SaIS1_EEEppEv", i32 749, metadata !478, i1 false, i1 false, i32 0, i32 0, null, i32 256, i1 false, null, null, i32 0, null, i32 749} ; [ DW_TAG_subprogram ] [line 749] [operator++]
!478 = metadata !{i32 786453, i32 0, null, metadata !"", i32 0, i64 0, i64 0, i64 0, i32 0, null, metadata !479, i32 0, null, null, null} ; [ DW_TAG_subroutine_type ] [line 0, size 0, align 0, offset 0] [from ]
!479 = metadata !{metadata !480, metadata !458}
!480 = metadata !{i32 786448, null, null, null, i32 0, i64 0, i64 0, i64 0, i32 0, metadata !"_ZTSN9__gnu_cxx17__normal_iteratorIP6ImagesSt6vectorIS1_SaIS1_EEEE"} ; [ DW_TAG_reference_type ] [line 0, size 0, align 0, offset 0] [from _ZTSN9__gnu_cxx17__normal_iteratorIP6ImagesSt6vectorIS1_SaIS1_EEEE]
!481 = metadata !{i32 786478, metadata !452, metadata !"_ZTSN9__gnu_cxx17__normal_iteratorIP6ImagesSt6vectorIS1_SaIS1_EEEE", metadata !"operator++", metadata !"operator++", metadata !"_ZN9__gnu_cxx17__normal_iteratorIP6ImagesSt6vectorIS1_SaIS1_EEEppEi", i32 756, metadata !482, i1 false, i1 false, i32 0, i32 0, null, i32 256, i1 false, null, null, i32 0, null, i32 756} ; [ DW_TAG_subprogram ] [line 756] [operator++]
!482 = metadata !{i32 786453, i32 0, null, metadata !"", i32 0, i64 0, i64 0, i64 0, i32 0, null, metadata !483, i32 0, null, null, null} ; [ DW_TAG_subroutine_type ] [line 0, size 0, align 0, offset 0] [from ]
!483 = metadata !{metadata !451, metadata !458, metadata !20}
!484 = metadata !{i32 786478, metadata !452, metadata !"_ZTSN9__gnu_cxx17__normal_iteratorIP6ImagesSt6vectorIS1_SaIS1_EEEE", metadata !"operator--", metadata !"operator--", metadata !"_ZN9__gnu_cxx17__normal_iteratorIP6ImagesSt6vectorIS1_SaIS1_EEEmmEv", i32 761, metadata !478, i1 false, i1 false, i32 0, i32 0, null, i32 256, i1 false, null, null, i32 0, null, i32 761} ; [ DW_TAG_subprogram ] [line 761] [operator--]
!485 = metadata !{i32 786478, metadata !452, metadata !"_ZTSN9__gnu_cxx17__normal_iteratorIP6ImagesSt6vectorIS1_SaIS1_EEEE", metadata !"operator--", metadata !"operator--", metadata !"_ZN9__gnu_cxx17__normal_iteratorIP6ImagesSt6vectorIS1_SaIS1_EEEmmEi", i32 768, metadata !482, i1 false, i1 false, i32 0, i32 0, null, i32 256, i1 false, null, null, i32 0, null, i32 768} ; [ DW_TAG_subprogram ] [line 768] [operator--]
!486 = metadata !{i32 786478, metadata !452, metadata !"_ZTSN9__gnu_cxx17__normal_iteratorIP6ImagesSt6vectorIS1_SaIS1_EEEE", metadata !"operator[]", metadata !"operator[]", metadata !"_ZNK9__gnu_cxx17__normal_iteratorIP6ImagesSt6vectorIS1_SaIS1_EEEixEi", i32 773, metadata !487, i1 false, i1 false, i32 0, i32 0, null, i32 256, i1 false, null, null, i32 0, null, i32 773} ; [ DW_TAG_subprogram ] [line 773] [operator[]]
!487 = metadata !{i32 786453, i32 0, null, metadata !"", i32 0, i64 0, i64 0, i64 0, i32 0, null, metadata !488, i32 0, null, null, null} ; [ DW_TAG_subroutine_type ] [line 0, size 0, align 0, offset 0] [from ]
!488 = metadata !{metadata !467, metadata !470, metadata !489}
!489 = metadata !{i32 786454, metadata !452, metadata !"_ZTSN9__gnu_cxx17__normal_iteratorIP6ImagesSt6vectorIS1_SaIS1_EEEE", metadata !"difference_type", i32 720, i64 0, i64 0, i64 0, i32 0, metadata !490} ; [ DW_TAG_typedef ] [difference_type] [line 720, size 0, align 0, offset 0] [from difference_type]
!490 = metadata !{i32 786454, metadata !469, metadata !"_ZTSSt15iterator_traitsIP6ImagesE", metadata !"difference_type", i32 179, i64 0, i64 0, i64 0, i32 0, metadata !491} ; [ DW_TAG_typedef ] [difference_type] [line 179, size 0, align 0, offset 0] [from ptrdiff_t]
!491 = metadata !{i32 786454, metadata !6, metadata !5, metadata !"ptrdiff_t", i32 189, i64 0, i64 0, i64 0, i32 0, metadata !20} ; [ DW_TAG_typedef ] [ptrdiff_t] [line 189, size 0, align 0, offset 0] [from int]
!492 = metadata !{i32 786478, metadata !452, metadata !"_ZTSN9__gnu_cxx17__normal_iteratorIP6ImagesSt6vectorIS1_SaIS1_EEEE", metadata !"operator+=", metadata !"operator+=", metadata !"_ZN9__gnu_cxx17__normal_iteratorIP6ImagesSt6vectorIS1_SaIS1_EEEpLEi", i32 777, metadata !493, i1 false, i1 false, i32 0, i32 0, null, i32 256, i1 false, null, null, i32 0, null, i32 777} ; [ DW_TAG_subprogram ] [line 777] [operator+=]
!493 = metadata !{i32 786453, i32 0, null, metadata !"", i32 0, i64 0, i64 0, i64 0, i32 0, null, metadata !494, i32 0, null, null, null} ; [ DW_TAG_subroutine_type ] [line 0, size 0, align 0, offset 0] [from ]
!494 = metadata !{metadata !480, metadata !458, metadata !489}
!495 = metadata !{i32 786478, metadata !452, metadata !"_ZTSN9__gnu_cxx17__normal_iteratorIP6ImagesSt6vectorIS1_SaIS1_EEEE", metadata !"operator+", metadata !"operator+", metadata !"_ZNK9__gnu_cxx17__normal_iteratorIP6ImagesSt6vectorIS1_SaIS1_EEEplEi", i32 781, metadata !496, i1 false, i1 false, i32 0, i32 0, null, i32 256, i1 false, null, null, i32 0, null, i32 781} ; [ DW_TAG_subprogram ] [line 781] [operator+]
!496 = metadata !{i32 786453, i32 0, null, metadata !"", i32 0, i64 0, i64 0, i64 0, i32 0, null, metadata !497, i32 0, null, null, null} ; [ DW_TAG_subroutine_type ] [line 0, size 0, align 0, offset 0] [from ]
!497 = metadata !{metadata !451, metadata !470, metadata !489}
!498 = metadata !{i32 786478, metadata !452, metadata !"_ZTSN9__gnu_cxx17__normal_iteratorIP6ImagesSt6vectorIS1_SaIS1_EEEE", metadata !"operator-=", metadata !"operator-=", metadata !"_ZN9__gnu_cxx17__normal_iteratorIP6ImagesSt6vectorIS1_SaIS1_EEEmIEi", i32 785, metadata !493, i1 false, i1 false, i32 0, i32 0, null, i32 256, i1 false, null, null, i32 0, null, i32 785} ; [ DW_TAG_subprogram ] [line 785] [operator-=]
